 CourseworkBase

 Timestamp is 59088eb6 (Tue May 02 14:50:46 2017)

 Preferred load address is 00400000

 Start         Length     Name                   Class
 0001:00000000 000048f5H .text                   CODE
 0001:00004900 00002c68H .text$di                CODE
 0001:00007570 0003d5b9H .text$mn                CODE
 0001:00044b30 000034a4H .text$x                 CODE
 0001:00047fe0 00001686H .text$yd                CODE
 0002:00000000 00000104H .CRT$XCA                DATA
 0002:00000104 00000104H .CRT$XCAA               DATA
 0002:00000208 00000104H .CRT$XCL                DATA
 0002:0000030c 00000360H .CRT$XCU                DATA
 0002:0000066c 00000104H .CRT$XCZ                DATA
 0002:00000770 00000104H .CRT$XIA                DATA
 0002:00000874 00000104H .CRT$XIAA               DATA
 0002:00000978 00000109H .CRT$XIC                DATA
 0002:00000a84 00000104H .CRT$XIY                DATA
 0002:00000b88 00000104H .CRT$XIZ                DATA
 0002:00000c90 0000190eH .rdata                  DATA
 0002:000025a0 00000199H .rdata$debug            DATA
 0002:0000273c 000016aaH .rdata$r                DATA
 0002:00003df0 000003a4H .rdata$sxdata           DATA
 0002:00004194 00000104H .rtc$IAA                DATA
 0002:00004298 00000104H .rtc$IZZ                DATA
 0002:0000439c 00000104H .rtc$TAA                DATA
 0002:000044a0 00000104H .rtc$TZZ                DATA
 0002:000045a8 00002a5aH .xdata$x                DATA
 0002:00007002 00000000H .edata                  DATA
 0003:00000000 00000134H .data                   DATA
 0003:00000138 00000a8aH .data$r                 DATA
 0003:00000bc8 00000425H .bss                    DATA
 0004:00000000 000004b0H .idata$5                DATA
 0004:000004b0 00000078H .idata$2                DATA
 0004:00000528 00000014H .idata$3                DATA
 0004:0000053c 000004b0H .idata$4                DATA
 0004:000009ec 00001bd4H .idata$6                DATA
 0005:00000000 00000169H .rsrc$01                DATA
 0005:00000170 000003e3H .rsrc$02                DATA

  Address         Publics by Value              Rva+Base       Lib:Object

 0000:00000000       ___guard_flags             00000000     <absolute>
 0000:00000000       __except_list              00000000     <absolute>
 0000:00000000       ___guard_fids_count        00000000     <absolute>
 0000:00000000       ___guard_fids_table        00000000     <absolute>
 0000:0000008d       ___safe_se_handler_count   0000008d     <absolute>
 0000:00009876       __fltused                  00009876     <absolute>
 0000:00009876       __ldused                   00009876     <absolute>
 0000:00000000       ___ImageBase               00400000     <linker-defined>
 0001:000045d0       _main                      004055d0 f   SDL2main:SDL_windows_main.obj
 0001:00004600       _WinMain@16                00405600 f   SDL2main:SDL_windows_main.obj
 0001:00007570       ??$_Allocate@D@std@@YAPADIPAD@Z 00408570 f i BulletObject.obj
 0001:000075d0       ??$_Destroy_range@U?$_Wrap_alloc@V?$allocator@PAVZombieObject@@@std@@@std@@@std@@YAXPAPAVZombieObject@@0AAU?$_Wrap_alloc@V?$allocator@PAVZombieObject@@@std@@@0@@Z 004085d0 f i BulletObject.obj
 0001:00007620       ??$_Destroy_range@U?$_Wrap_alloc@V?$allocator@PAVZombieObject@@@std@@@std@@@std@@YAXPAPAVZombieObject@@0AAU?$_Wrap_alloc@V?$allocator@PAVZombieObject@@@std@@@0@U_Scalar_ptr_iterator_tag@0@@Z 00408620 f i BulletObject.obj
 0001:00007640       ??$_Destroy_range@U?$_Wrap_alloc@V?$allocator@UPolygon@@@std@@@std@@@std@@YAXPAUPolygon@@0AAU?$_Wrap_alloc@V?$allocator@UPolygon@@@std@@@0@@Z 00408640 f i BulletObject.obj
 0001:00007690       ??$_Destroy_range@U?$_Wrap_alloc@V?$allocator@UPolygon@@@std@@@std@@@std@@YAXPAUPolygon@@0AAU?$_Wrap_alloc@V?$allocator@UPolygon@@@std@@@0@U_Nonscalar_ptr_iterator_tag@0@@Z 00408690 f i BulletObject.obj
 0001:000076d0       ??$_Ptr_cat@PAVZombieObject@@PAV1@@std@@YA?AU_Scalar_ptr_iterator_tag@0@PAPAVZombieObject@@0@Z 004086d0 f i BulletObject.obj
 0001:000076f0       ??$_Ptr_cat@UPolygon@@U1@@std@@YA?AU_Nonscalar_ptr_iterator_tag@0@PAUPolygon@@0@Z 004086f0 f i BulletObject.obj
 0001:00007710       ??$addressof@D@std@@YAPADAAD@Z 00408710 f i BulletObject.obj
 0001:00007730       ??$construct@PADAAPAD@?$_Wrap_alloc@V?$allocator@D@std@@@std@@QAEXPAPADAAPAD@Z 00408730 f i BulletObject.obj
 0001:00007770       ??$construct@PADAAPAD@?$allocator@D@std@@QAEXPAPADAAPAD@Z 00408770 f i BulletObject.obj
 0001:00007820       ??$construct@PADAAPAD@?$allocator_traits@V?$allocator@D@std@@@std@@SAXAAV?$allocator@D@1@PAPADAAPAD@Z 00408820 f i BulletObject.obj
 0001:00007860       ??$destroy@PAD@?$_Wrap_alloc@V?$allocator@D@std@@@std@@QAEXPAPAD@Z 00408860 f i BulletObject.obj
 0001:00007890       ??$destroy@PAD@?$allocator@D@std@@QAEXPAPAD@Z 00408890 f i BulletObject.obj
 0001:000078b0       ??$destroy@PAD@?$allocator_traits@V?$allocator@D@std@@@std@@SAXAAV?$allocator@D@1@PAPAD@Z 004088b0 f i BulletObject.obj
 0001:000078e0       ??$destroy@UPolygon@@@?$_Wrap_alloc@V?$allocator@UPolygon@@@std@@@std@@QAEXPAUPolygon@@@Z 004088e0 f i BulletObject.obj
 0001:00007910       ??$destroy@UPolygon@@@?$allocator@UPolygon@@@std@@QAEXPAUPolygon@@@Z 00408910 f i BulletObject.obj
 0001:00007940       ??$destroy@UPolygon@@@?$allocator_traits@V?$allocator@UPolygon@@@std@@@std@@SAXAAV?$allocator@UPolygon@@@1@PAUPolygon@@@Z 00408940 f i BulletObject.obj
 0001:00007970       ??$forward@AAPAD@std@@YAAAPADAAPAD@Z 00408970 f i BulletObject.obj
 0001:00007990       ??0?$_String_alloc@$0A@U?$_String_base_types@DV?$allocator@D@std@@@std@@@std@@QAE@ABV?$allocator@D@1@@Z 00408990 f i BulletObject.obj
 0001:000079c0       ??0?$_String_val@U?$_Simple_types@D@std@@@std@@QAE@XZ 004089c0 f i BulletObject.obj
 0001:00007a00       ??0?$_Vector_const_iterator@V?$_Vector_val@U?$_Simple_types@PAVZombieObject@@@std@@@std@@@std@@QAE@PAPAVZombieObject@@PBU_Container_base0@1@@Z 00408a00 f i BulletObject.obj
 0001:00007a40       ??0?$_Vector_const_iterator@V?$_Vector_val@U?$_Simple_types@UPolygon@@@std@@@std@@@std@@QAE@PAUPolygon@@PBU_Container_base0@1@@Z 00408a40 f i BulletObject.obj
 0001:00007a80       ??0?$_Vector_iterator@V?$_Vector_val@U?$_Simple_types@PAVZombieObject@@@std@@@std@@@std@@QAE@PAPAVZombieObject@@PBU_Container_base0@1@@Z 00408a80 f i BulletObject.obj
 0001:00007ac0       ??0?$_Vector_iterator@V?$_Vector_val@U?$_Simple_types@UPolygon@@@std@@@std@@@std@@QAE@PAUPolygon@@PBU_Container_base0@1@@Z 00408ac0 f i BulletObject.obj
 0001:00007b00       ??0?$_Wrap_alloc@V?$allocator@D@std@@@std@@QAE@XZ 00408b00 f i BulletObject.obj
 0001:00007b30       ??0?$_Wrap_alloc@V?$allocator@PAVZombieObject@@@std@@@std@@QAE@XZ 00408b30 f i BulletObject.obj
 0001:00007b60       ??0?$_Wrap_alloc@V?$allocator@UPolygon@@@std@@@std@@QAE@XZ 00408b60 f i BulletObject.obj
 0001:00007b90       ??0?$allocator@D@std@@QAE@XZ 00408b90 f i BulletObject.obj
 0001:00007bb0       ??0?$allocator@PAVZombieObject@@@std@@QAE@XZ 00408bb0 f i BulletObject.obj
 0001:00007bd0       ??0?$allocator@UPolygon@@@std@@QAE@XZ 00408bd0 f i BulletObject.obj
 0001:00007bf0       ??0?$basic_string@DU?$char_traits@D@std@@V?$allocator@D@2@@std@@QAE@PBD@Z 00408bf0 f i BulletObject.obj
 0001:00007c50       ??0BulletObject@@QAE@PAVPlayState@@NNN@Z 00408c50 f   BulletObject.obj
 0001:00007db0       ??0_Generic_error_category@std@@QAE@XZ 00408db0 f i BulletObject.obj
 0001:00007de0       ??0_Iostream_error_category@std@@QAE@XZ 00408de0 f i BulletObject.obj
 0001:00007e10       ??0_System_error_category@std@@QAE@XZ 00408e10 f i BulletObject.obj
 0001:00007e40       ??0error_category@std@@QAE@XZ 00408e40 f i BulletObject.obj
 0001:00007e70       ??0error_condition@std@@QAE@HABVerror_category@1@@Z 00408e70 f i BulletObject.obj
 0001:00007eb0       ??1?$vector@PAVZombieObject@@V?$allocator@PAVZombieObject@@@std@@@std@@QAE@XZ 00408eb0 f i BulletObject.obj
 0001:00007ee0       ??1?$vector@UPolygon@@V?$allocator@UPolygon@@@std@@@std@@QAE@XZ 00408ee0 f i BulletObject.obj
 0001:00007f10       ??1BulletObject@@UAE@XZ    00408f10 f   BulletObject.obj
 0001:00007f40       ??1_Generic_error_category@std@@UAE@XZ 00408f40 f i BulletObject.obj
 0001:00007f70       ??1_Iostream_error_category@std@@UAE@XZ 00408f70 f i BulletObject.obj
 0001:00007fa0       ??1_System_error_category@std@@UAE@XZ 00408fa0 f i BulletObject.obj
 0001:00007fd0       ??1error_category@std@@UAE@XZ 00408fd0 f i BulletObject.obj
 0001:00008000       ??2@YAPAXIPAX@Z            00409000 f i BulletObject.obj
 0001:00008020       ??3@YAXPAX0@Z              00409020 f i BulletObject.obj
 0001:00008040       ??8?$_Vector_const_iterator@V?$_Vector_val@U?$_Simple_types@PAVZombieObject@@@std@@@std@@@std@@QBE_NABV01@@Z 00409040 f i BulletObject.obj
 0001:00008090       ??8?$_Vector_const_iterator@V?$_Vector_val@U?$_Simple_types@UPolygon@@@std@@@std@@@std@@QBE_NABV01@@Z 00409090 f i BulletObject.obj
 0001:000080e0       ??8error_category@std@@QBE_NABV01@@Z 004090e0 f i BulletObject.obj
 0001:00008120       ??8error_condition@std@@QBE_NABV01@@Z 00409120 f i BulletObject.obj
 0001:000081a0       ??9?$_Vector_const_iterator@V?$_Vector_val@U?$_Simple_types@PAVZombieObject@@@std@@@std@@@std@@QBE_NABV01@@Z 004091a0 f i BulletObject.obj
 0001:000081f0       ??9?$_Vector_const_iterator@V?$_Vector_val@U?$_Simple_types@UPolygon@@@std@@@std@@@std@@QBE_NABV01@@Z 004091f0 f i BulletObject.obj
 0001:00008240       ??D?$_Vector_const_iterator@V?$_Vector_val@U?$_Simple_types@PAVZombieObject@@@std@@@std@@@std@@QBEABQAVZombieObject@@XZ 00409240 f i BulletObject.obj
 0001:00008260       ??D?$_Vector_const_iterator@V?$_Vector_val@U?$_Simple_types@UPolygon@@@std@@@std@@@std@@QBEABUPolygon@@XZ 00409260 f i BulletObject.obj
 0001:00008280       ??D?$_Vector_iterator@V?$_Vector_val@U?$_Simple_types@PAVZombieObject@@@std@@@std@@@std@@QBEAAPAVZombieObject@@XZ 00409280 f i BulletObject.obj
 0001:000082b0       ??D?$_Vector_iterator@V?$_Vector_val@U?$_Simple_types@UPolygon@@@std@@@std@@@std@@QBEAAUPolygon@@XZ 004092b0 f i BulletObject.obj
 0001:000082e0       ??E?$_Vector_const_iterator@V?$_Vector_val@U?$_Simple_types@PAVZombieObject@@@std@@@std@@@std@@QAEAAV01@XZ 004092e0 f i BulletObject.obj
 0001:00008310       ??E?$_Vector_const_iterator@V?$_Vector_val@U?$_Simple_types@UPolygon@@@std@@@std@@@std@@QAEAAV01@XZ 00409310 f i BulletObject.obj
 0001:00008340       ??E?$_Vector_iterator@V?$_Vector_val@U?$_Simple_types@PAVZombieObject@@@std@@@std@@@std@@QAEAAV01@XZ 00409340 f i BulletObject.obj
 0001:00008370       ??E?$_Vector_iterator@V?$_Vector_val@U?$_Simple_types@UPolygon@@@std@@@std@@@std@@QAEAAV01@XZ 00409370 f i BulletObject.obj
 0001:000083a0       ??_EBulletObject@@UAEPAXI@Z 004093a0 f i BulletObject.obj
 0001:000083a0       ??_GBulletObject@@UAEPAXI@Z 004093a0 f i BulletObject.obj
 0001:000083f0       ??_GPolygon@@QAEPAXI@Z     004093f0 f i BulletObject.obj
 0001:00008440       ??_G_Generic_error_category@std@@UAEPAXI@Z 00409440 f i BulletObject.obj
 0001:00008440       ??_E_Generic_error_category@std@@UAEPAXI@Z 00409440 f i BulletObject.obj
 0001:00008490       ??_E_Iostream_error_category@std@@UAEPAXI@Z 00409490 f i BulletObject.obj
 0001:00008490       ??_G_Iostream_error_category@std@@UAEPAXI@Z 00409490 f i BulletObject.obj
 0001:000084e0       ??_G_System_error_category@std@@UAEPAXI@Z 004094e0 f i BulletObject.obj
 0001:000084e0       ??_E_System_error_category@std@@UAEPAXI@Z 004094e0 f i BulletObject.obj
 0001:00008530       ??_Eerror_category@std@@UAEPAXI@Z 00409530 f i BulletObject.obj
 0001:00008530       ??_Gerror_category@std@@UAEPAXI@Z 00409530 f i BulletObject.obj
 0001:00008580       ?DoUpdate@BulletObject@@UAEXH@Z 00409580 f   BulletObject.obj
 0001:00008930       ?Draw@BulletObject@@UAEXXZ 00409930 f   BulletObject.obj
 0001:000089b0       ?DrawScreenOval@BaseEngine@@QAEXHHHHI@Z 004099b0 f i BulletObject.obj
 0001:00008a00       ?IsVisible@DisplayableObject@@QBE_NXZ 00409a00 f i BulletObject.obj
 0001:00008a20       ?Notify@DisplayableObject@@UAEJH@Z 00409a20 f i BulletObject.obj
 0001:00008a40       ?Redraw@BaseEngine@@QAEX_N@Z 00409a40 f i BulletObject.obj
 0001:00008a80       ?RedrawObjects@DisplayableObject@@QAEXXZ 00409a80 f i BulletObject.obj
 0001:00008ab0       ?_Adopt@_Iterator_base0@std@@QAEXPBX@Z 00409ab0 f i BulletObject.obj
 0001:00008ad0       ?_Compat@?$_Vector_const_iterator@V?$_Vector_val@U?$_Simple_types@PAVZombieObject@@@std@@@std@@@std@@QBEXABV12@@Z 00409ad0 f i BulletObject.obj
 0001:00008af0       ?_Compat@?$_Vector_const_iterator@V?$_Vector_val@U?$_Simple_types@UPolygon@@@std@@@std@@@std@@QBEXABV12@@Z 00409af0 f i BulletObject.obj
 0001:00008b10       ?_Copy@?$basic_string@DU?$char_traits@D@std@@V?$allocator@D@2@@std@@QAEXII@Z 00409b10 f i BulletObject.obj
 0001:00008d40       ?_Destroy@?$vector@PAVZombieObject@@V?$allocator@PAVZombieObject@@@std@@@std@@IAEXPAPAVZombieObject@@0@Z 00409d40 f i BulletObject.obj
 0001:00008d90       ?_Destroy@?$vector@UPolygon@@V?$allocator@UPolygon@@@std@@@std@@IAEXPAUPolygon@@0@Z 00409d90 f i BulletObject.obj
 0001:00008de0       ?_Eos@?$basic_string@DU?$char_traits@D@std@@V?$allocator@D@2@@std@@QAEXI@Z 00409de0 f i BulletObject.obj
 0001:00008e30       ?_Getal@?$_String_alloc@$0A@U?$_String_base_types@DV?$allocator@D@std@@@std@@@std@@QBE?AU?$_Wrap_alloc@V?$allocator@D@std@@@2@XZ 00409e30 f i BulletObject.obj
 0001:00008e60       ?_Getal@?$_Vector_alloc@$0A@U?$_Vec_base_types@PAVZombieObject@@V?$allocator@PAVZombieObject@@@std@@@std@@@std@@QBE?AU?$_Wrap_alloc@V?$allocator@PAVZombieObject@@@std@@@2@XZ 00409e60 f i BulletObject.obj
 0001:00008e90       ?_Getal@?$_Vector_alloc@$0A@U?$_Vec_base_types@UPolygon@@V?$allocator@UPolygon@@@std@@@std@@@std@@QBE?AU?$_Wrap_alloc@V?$allocator@UPolygon@@@std@@@2@XZ 00409e90 f i BulletObject.obj
 0001:00008ec0       ?_Grow@?$basic_string@DU?$char_traits@D@std@@V?$allocator@D@2@@std@@QAE_NI_N@Z 00409ec0 f i BulletObject.obj
 0001:00008fa0       ?_Inside@?$basic_string@DU?$char_traits@D@std@@V?$allocator@D@2@@std@@QAE_NPBD@Z 00409fa0 f i BulletObject.obj
 0001:00009000       ?_Myptr@?$_String_val@U?$_Simple_types@D@std@@@std@@QAEPADXZ 0040a000 f i BulletObject.obj
 0001:00009050       ?_Myptr@?$_String_val@U?$_Simple_types@D@std@@@std@@QBEPBDXZ 0040a050 f i BulletObject.obj
 0001:000090a0       ?_Tidy@?$basic_string@DU?$char_traits@D@std@@V?$allocator@D@2@@std@@QAEX_NI@Z 0040a0a0 f i BulletObject.obj
 0001:00009170       ?_Tidy@?$vector@PAVZombieObject@@V?$allocator@PAVZombieObject@@@std@@@std@@IAEXXZ 0040a170 f i BulletObject.obj
 0001:00009210       ?_Tidy@?$vector@UPolygon@@V?$allocator@UPolygon@@@std@@@std@@IAEXXZ 0040a210 f i BulletObject.obj
 0001:000092c0       ?_Xlen@?$basic_string@DU?$char_traits@D@std@@V?$allocator@D@2@@std@@QBEXXZ 0040a2c0 f i BulletObject.obj
 0001:000092f0       ?_Xran@?$basic_string@DU?$char_traits@D@std@@V?$allocator@D@2@@std@@QBEXXZ 0040a2f0 f i BulletObject.obj
 0001:00009320       ?allocate@?$_Wrap_alloc@V?$allocator@D@std@@@std@@QAEPADI@Z 0040a320 f i BulletObject.obj
 0001:00009350       ?allocate@?$allocator@D@std@@QAEPADI@Z 0040a350 f i BulletObject.obj
 0001:00009380       ?assign@?$basic_string@DU?$char_traits@D@std@@V?$allocator@D@2@@std@@QAEAAV12@ABV12@II@Z 0040a380 f i BulletObject.obj
 0001:00009460       ?assign@?$basic_string@DU?$char_traits@D@std@@V?$allocator@D@2@@std@@QAEAAV12@PBD@Z 0040a460 f i BulletObject.obj
 0001:000094a0       ?assign@?$basic_string@DU?$char_traits@D@std@@V?$allocator@D@2@@std@@QAEAAV12@PBDI@Z 0040a4a0 f i BulletObject.obj
 0001:00009550       ?assign@?$char_traits@D@std@@SAXAADABD@Z 0040a550 f i BulletObject.obj
 0001:00009570       ?begin@?$vector@PAVZombieObject@@V?$allocator@PAVZombieObject@@@std@@@std@@QAE?AV?$_Vector_iterator@V?$_Vector_val@U?$_Simple_types@PAVZombieObject@@@std@@@std@@@2@XZ 0040a570 f i BulletObject.obj
 0001:000095b0       ?begin@?$vector@UPolygon@@V?$allocator@UPolygon@@@std@@@std@@QAE?AV?$_Vector_iterator@V?$_Vector_val@U?$_Simple_types@UPolygon@@@std@@@std@@@2@XZ 0040a5b0 f i BulletObject.obj
 0001:000095f0       ?category@error_code@std@@QBEABVerror_category@2@XZ 0040a5f0 f i BulletObject.obj
 0001:00009610       ?category@error_condition@std@@QBEABVerror_category@2@XZ 0040a610 f i BulletObject.obj
 0001:00009630       ?copy@?$char_traits@D@std@@SAPADPADPBDI@Z 0040a630 f i BulletObject.obj
 0001:00009680       ?deallocate@?$_Wrap_alloc@V?$allocator@D@std@@@std@@QAEXPADI@Z 0040a680 f i BulletObject.obj
 0001:000096b0       ?deallocate@?$_Wrap_alloc@V?$allocator@PAVZombieObject@@@std@@@std@@QAEXPAPAVZombieObject@@I@Z 0040a6b0 f i BulletObject.obj
 0001:000096e0       ?deallocate@?$_Wrap_alloc@V?$allocator@UPolygon@@@std@@@std@@QAEXPAUPolygon@@I@Z 0040a6e0 f i BulletObject.obj
 0001:00009710       ?deallocate@?$allocator@D@std@@QAEXPADI@Z 0040a710 f i BulletObject.obj
 0001:00009740       ?deallocate@?$allocator@PAVZombieObject@@@std@@QAEXPAPAVZombieObject@@I@Z 0040a740 f i BulletObject.obj
 0001:00009770       ?deallocate@?$allocator@UPolygon@@@std@@QAEXPAUPolygon@@I@Z 0040a770 f i BulletObject.obj
 0001:000097a0       ?default_error_condition@_System_error_category@std@@UBE?AVerror_condition@2@H@Z 0040a7a0 f i BulletObject.obj
 0001:00009810       ?default_error_condition@error_category@std@@UBE?AVerror_condition@2@H@Z 0040a810 f i BulletObject.obj
 0001:00009850       ?end@?$vector@PAVZombieObject@@V?$allocator@PAVZombieObject@@@std@@@std@@QAE?AV?$_Vector_iterator@V?$_Vector_val@U?$_Simple_types@PAVZombieObject@@@std@@@std@@@2@XZ 0040a850 f i BulletObject.obj
 0001:00009890       ?end@?$vector@UPolygon@@V?$allocator@UPolygon@@@std@@@std@@QAE?AV?$_Vector_iterator@V?$_Vector_val@U?$_Simple_types@UPolygon@@@std@@@std@@@2@XZ 0040a890 f i BulletObject.obj
 0001:000098d0       ?equivalent@error_category@std@@UBE_NABVerror_code@2@H@Z 0040a8d0 f i BulletObject.obj
 0001:00009930       ?equivalent@error_category@std@@UBE_NHABVerror_condition@2@@Z 0040a930 f i BulletObject.obj
 0001:00009980       ?erase@?$basic_string@DU?$char_traits@D@std@@V?$allocator@D@2@@std@@QAEAAV12@I@Z 0040a980 f i BulletObject.obj
 0001:000099d0       ?erase@?$basic_string@DU?$char_traits@D@std@@V?$allocator@D@2@@std@@QAEAAV12@II@Z 0040a9d0 f i BulletObject.obj
 0001:00009a80       ?generic_category@std@@YAABVerror_category@1@XZ 0040aa80 f i BulletObject.obj
 0001:00009aa0       ?length@?$char_traits@D@std@@SAIPBD@Z 0040aaa0 f i BulletObject.obj
 0001:00009af0       ?max_size@?$_Wrap_alloc@V?$allocator@D@std@@@std@@QBEIXZ 0040aaf0 f i BulletObject.obj
 0001:00009b20       ?max_size@?$allocator@D@std@@QBEIXZ 0040ab20 f i BulletObject.obj
 0001:00009b40       ?max_size@?$allocator_traits@V?$allocator@D@std@@@std@@SAIABV?$allocator@D@2@@Z 0040ab40 f i BulletObject.obj
 0001:00009b60       ?max_size@?$basic_string@DU?$char_traits@D@std@@V?$allocator@D@2@@std@@QBEIXZ 0040ab60 f i BulletObject.obj
 0001:00009bc0       ?message@_Generic_error_category@std@@UBE?AV?$basic_string@DU?$char_traits@D@std@@V?$allocator@D@2@@2@H@Z 0040abc0 f i BulletObject.obj
 0001:00009c30       ?message@_Iostream_error_category@std@@UBE?AV?$basic_string@DU?$char_traits@D@std@@V?$allocator@D@2@@2@H@Z 0040ac30 f i BulletObject.obj
 0001:00009cb0       ?message@_System_error_category@std@@UBE?AV?$basic_string@DU?$char_traits@D@std@@V?$allocator@D@2@@2@H@Z 0040acb0 f i BulletObject.obj
 0001:00009d20       ?move@?$char_traits@D@std@@SAPADPADPBDI@Z 0040ad20 f i BulletObject.obj
 0001:00009d70       ?name@_Generic_error_category@std@@UBEPBDXZ 0040ad70 f i BulletObject.obj
 0001:00009d90       ?name@_Iostream_error_category@std@@UBEPBDXZ 0040ad90 f i BulletObject.obj
 0001:00009db0       ?name@_System_error_category@std@@UBEPBDXZ 0040adb0 f i BulletObject.obj
 0001:00009dd0       ?size@?$basic_string@DU?$char_traits@D@std@@V?$allocator@D@2@@std@@QBEIXZ 0040add0 f i BulletObject.obj
 0001:00009df0       ?system_category@std@@YAABVerror_category@1@XZ 0040adf0 f i BulletObject.obj
 0001:00009e10       ?value@error_code@std@@QBEHXZ 0040ae10 f i BulletObject.obj
 0001:00009e30       ?value@error_condition@std@@QBEHXZ 0040ae30 f i BulletObject.obj
 0001:00009e50       _hypot                     0040ae50 f i BulletObject.obj
 0001:00009e90       ??0Button@@QAE@PAVPsyja2Engine@@PADHH@Z 0040ae90 f   Button.obj
 0001:00009fe0       ??1Button@@UAE@XZ          0040afe0 f   Button.obj
 0001:0000a010       ??_GButton@@UAEPAXI@Z      0040b010 f i Button.obj
 0001:0000a010       ??_EButton@@UAEPAXI@Z      0040b010 f i Button.obj
 0001:0000a060       ?DoUpdate@Button@@UAEXH@Z  0040b060 f   Button.obj
 0001:0000a160       ?Draw@Button@@UAEXXZ       0040b160 f   Button.obj
 0001:0000a2d0       ?DrawScreenRectangle@BaseEngine@@QAEXHHHHI@Z 0040b2d0 f i Button.obj
 0001:0000a320       ?DrawScreenString@BaseEngine@@QAEXHHPBDIPAVFont@@@Z 0040b320 f i Button.obj
 0001:0000a370       ?GetCurrentMouseX@BaseEngine@@QBEHXZ 0040b370 f i Button.obj
 0001:0000a390       ?GetCurrentMouseY@BaseEngine@@QBEHXZ 0040b390 f i Button.obj
 0001:0000a3b0       ?GetFont@BaseEngine@@QAEPAVFont@@PADH@Z 0040b3b0 f i Button.obj
 0001:0000a3f0       ?GetMouseXClickedDown@BaseEngine@@QBEHXZ 0040b3f0 f i Button.obj
 0001:0000a410       ?GetMouseYClickedDown@BaseEngine@@QBEHXZ 0040b410 f i Button.obj
 0001:0000a430       ?IsPressed@Button@@QAE_NXZ 0040b430 f   Button.obj
 0001:0000a450       ??0CoinObject@@QAE@PAVPlayState@@HH@Z 0040b450 f   CoinObject.obj
 0001:0000a4a0       ??1CoinObject@@UAE@XZ      0040b4a0 f   CoinObject.obj
 0001:0000a4d0       ??_ECoinObject@@UAEPAXI@Z  0040b4d0 f i CoinObject.obj
 0001:0000a4d0       ??_GCoinObject@@UAEPAXI@Z  0040b4d0 f i CoinObject.obj
 0001:0000a520       ?Collect@CoinObject@@EAEXXZ 0040b520 f   CoinObject.obj
 0001:0000a580       ?GetCoins@SpriteManager@@QAEAAV?$vector@PAVImageData@@V?$allocator@PAVImageData@@@std@@@std@@XZ 0040b580 f i CoinObject.obj
 0001:0000a5a0       ?GetSprites@CoinObject@@EAEAAV?$vector@PAVImageData@@V?$allocator@PAVImageData@@@std@@@std@@XZ 0040b5a0 f i CoinObject.obj
 0001:0000a5d0       ??$GetAllObjectsOfType@VCoinObject@@@BaseEngine@@QAE?AV?$vector@PAVCoinObject@@V?$allocator@PAVCoinObject@@@std@@@std@@XZ 0040b5d0 f i CoinZombieObject.obj
 0001:0000a6f0       ??$_Allocate@PAVCoinObject@@@std@@YAPAPAVCoinObject@@IPAPAV1@@Z 0040b6f0 f i CoinZombieObject.obj
 0001:0000a750       ??$_Allocate@UZombieColor@@@std@@YAPAUZombieColor@@IPAU1@@Z 0040b750 f i CoinZombieObject.obj
 0001:0000a7b0       ??$_Destroy_range@U?$_Wrap_alloc@V?$allocator@PAVCoinObject@@@std@@@std@@@std@@YAXPAPAVCoinObject@@0AAU?$_Wrap_alloc@V?$allocator@PAVCoinObject@@@std@@@0@@Z 0040b7b0 f i CoinZombieObject.obj
 0001:0000a800       ??$_Destroy_range@U?$_Wrap_alloc@V?$allocator@PAVCoinObject@@@std@@@std@@@std@@YAXPAPAVCoinObject@@0AAU?$_Wrap_alloc@V?$allocator@PAVCoinObject@@@std@@@0@U_Scalar_ptr_iterator_tag@0@@Z 0040b800 f i CoinZombieObject.obj
 0001:0000a820       ??$_Destroy_range@U?$_Wrap_alloc@V?$allocator@UZombieColor@@@std@@@std@@@std@@YAXPAUZombieColor@@0AAU?$_Wrap_alloc@V?$allocator@UZombieColor@@@std@@@0@@Z 0040b820 f i CoinZombieObject.obj
 0001:0000a870       ??$_Destroy_range@U?$_Wrap_alloc@V?$allocator@UZombieColor@@@std@@@std@@@std@@YAXPAUZombieColor@@0AAU?$_Wrap_alloc@V?$allocator@UZombieColor@@@std@@@0@U_Nonscalar_ptr_iterator_tag@0@@Z 0040b870 f i CoinZombieObject.obj
 0001:0000a8b0       ??$_Ptr_cat@PAVCoinObject@@PAV1@@std@@YA?AU_Scalar_ptr_iterator_tag@0@PAPAVCoinObject@@0@Z 0040b8b0 f i CoinZombieObject.obj
 0001:0000a8d0       ??$_Ptr_cat@UZombieColor@@U1@@std@@YA?AU_Nonscalar_ptr_iterator_tag@0@PAUZombieColor@@0@Z 0040b8d0 f i CoinZombieObject.obj
 0001:0000a8f0       ??$_Rechecked@PAPAVCoinObject@@PAPAV1@@std@@YAAAPAPAVCoinObject@@AAPAPAV1@PAPAV1@@Z 0040b8f0 f i CoinZombieObject.obj
 0001:0000a920       ??$_Rechecked@PAUZombieColor@@PAU1@@std@@YAAAPAUZombieColor@@AAPAU1@PAU1@@Z 0040b920 f i CoinZombieObject.obj
 0001:0000a950       ??$_Umove@PAPAVCoinObject@@@?$vector@PAVCoinObject@@V?$allocator@PAVCoinObject@@@std@@@std@@IAEPAPAVCoinObject@@PAPAV2@00@Z 0040b950 f i CoinZombieObject.obj
 0001:0000a9a0       ??$_Umove@PAUZombieColor@@@?$vector@UZombieColor@@V?$allocator@UZombieColor@@@std@@@std@@IAEPAUZombieColor@@PAU2@00@Z 0040b9a0 f i CoinZombieObject.obj
 0001:0000a9f0       ??$_Unchecked@PAPAVCoinObject@@@std@@YAPAPAVCoinObject@@PAPAV1@@Z 0040b9f0 f i CoinZombieObject.obj
 0001:0000aa10       ??$_Unchecked@PAUZombieColor@@@std@@YAPAUZombieColor@@PAU1@@Z 0040ba10 f i CoinZombieObject.obj
 0001:0000aa30       ??$_Uninit_move@PAPAVCoinObject@@PAPAV1@U?$_Wrap_alloc@V?$allocator@PAVCoinObject@@@std@@@std@@@std@@YAPAPAVCoinObject@@PAPAV1@00AAU?$_Wrap_alloc@V?$allocator@PAVCoinObject@@@std@@@0@@Z 0040ba30 f i CoinZombieObject.obj
 0001:0000aa90       ??$_Uninit_move@PAUZombieColor@@PAU1@U?$_Wrap_alloc@V?$allocator@UZombieColor@@@std@@@std@@@std@@YAPAUZombieColor@@PAU1@00AAU?$_Wrap_alloc@V?$allocator@UZombieColor@@@std@@@0@@Z 0040ba90 f i CoinZombieObject.obj
 0001:0000aaf0       ??$_Uninit_move@PAUZombieColor@@PAU1@V?$allocator@UZombieColor@@@std@@U1@@std@@YAPAUZombieColor@@PAU1@00AAU?$_Wrap_alloc@V?$allocator@UZombieColor@@@std@@@0@0U_Nonscalar_ptr_iterator_tag@0@@Z 0040baf0 f i CoinZombieObject.obj
 0001:0000abe0       ??$_Uninit_move@PAVCoinObject@@PAV1@PAV1@@std@@YAPAPAVCoinObject@@PAPAV1@00AAU?$_Wrap_alloc@V?$allocator@PAVCoinObject@@@std@@@0@0U_Scalar_ptr_iterator_tag@0@@Z 0040bbe0 f i CoinZombieObject.obj
 0001:0000ac30       ??$_Uninitialized_move@PAPAVCoinObject@@PAPAV1@U?$_Wrap_alloc@V?$allocator@PAVCoinObject@@@std@@@std@@@std@@YAPAPAVCoinObject@@PAPAV1@00AAU?$_Wrap_alloc@V?$allocator@PAVCoinObject@@@std@@@0@@Z 0040bc30 f i CoinZombieObject.obj
 0001:0000aca0       ??$_Uninitialized_move@PAUZombieColor@@PAU1@U?$_Wrap_alloc@V?$allocator@UZombieColor@@@std@@@std@@@std@@YAPAUZombieColor@@PAU1@00AAU?$_Wrap_alloc@V?$allocator@UZombieColor@@@std@@@0@@Z 0040bca0 f i CoinZombieObject.obj
 0001:0000ad10       ??$_Val_type@PAPAVCoinObject@@@std@@YAPAPAVCoinObject@@PAPAV1@@Z 0040bd10 f i CoinZombieObject.obj
 0001:0000ad30       ??$_Val_type@PAUZombieColor@@@std@@YAPAUZombieColor@@PAU1@@Z 0040bd30 f i CoinZombieObject.obj
 0001:0000ad50       ??$addressof@QAVCoinObject@@@std@@YAPBQAVCoinObject@@ABQAV1@@Z 0040bd50 f i CoinZombieObject.obj
 0001:0000ad70       ??$addressof@UZombieColor@@@std@@YAPAUZombieColor@@AAU1@@Z 0040bd70 f i CoinZombieObject.obj
 0001:0000ad90       ??$construct@PAVCoinObject@@AAPAV1@@?$_Wrap_alloc@V?$allocator@PAVCoinObject@@@std@@@std@@QAEXPAPAVCoinObject@@AAPAV2@@Z 0040bd90 f i CoinZombieObject.obj
 0001:0000add0       ??$construct@PAVCoinObject@@AAPAV1@@?$allocator@PAVCoinObject@@@std@@QAEXPAPAVCoinObject@@AAPAV2@@Z 0040bdd0 f i CoinZombieObject.obj
 0001:0000ae80       ??$construct@PAVCoinObject@@AAPAV1@@?$allocator_traits@V?$allocator@PAVCoinObject@@@std@@@std@@SAXAAV?$allocator@PAVCoinObject@@@1@PAPAVCoinObject@@AAPAV3@@Z 0040be80 f i CoinZombieObject.obj
 0001:0000aec0       ??$construct@PAVCoinObject@@ABQAV1@@?$_Wrap_alloc@V?$allocator@PAVCoinObject@@@std@@@std@@QAEXPAPAVCoinObject@@ABQAV2@@Z 0040bec0 f i CoinZombieObject.obj
 0001:0000af00       ??$construct@PAVCoinObject@@ABQAV1@@?$allocator_traits@V?$allocator@PAVCoinObject@@@std@@@std@@SAXAAV?$allocator@PAVCoinObject@@@1@PAPAVCoinObject@@ABQAV3@@Z 0040bf00 f i CoinZombieObject.obj
 0001:0000af40       ??$construct@UZombieColor@@U1@@?$_Wrap_alloc@V?$allocator@UZombieColor@@@std@@@std@@QAEXPAUZombieColor@@$$QAU2@@Z 0040bf40 f i CoinZombieObject.obj
 0001:0000af80       ??$construct@UZombieColor@@U1@@?$allocator@UZombieColor@@@std@@QAEXPAUZombieColor@@$$QAU2@@Z 0040bf80 f i CoinZombieObject.obj
 0001:0000b040       ??$construct@UZombieColor@@U1@@?$allocator_traits@V?$allocator@UZombieColor@@@std@@@std@@SAXAAV?$allocator@UZombieColor@@@1@PAUZombieColor@@$$QAU3@@Z 0040c040 f i CoinZombieObject.obj
 0001:0000b080       ??$destroy@UZombieColor@@@?$_Wrap_alloc@V?$allocator@UZombieColor@@@std@@@std@@QAEXPAUZombieColor@@@Z 0040c080 f i CoinZombieObject.obj
 0001:0000b0b0       ??$destroy@UZombieColor@@@?$allocator@UZombieColor@@@std@@QAEXPAUZombieColor@@@Z 0040c0b0 f i CoinZombieObject.obj
 0001:0000b0d0       ??$destroy@UZombieColor@@@?$allocator_traits@V?$allocator@UZombieColor@@@std@@@std@@SAXAAV?$allocator@UZombieColor@@@1@PAUZombieColor@@@Z 0040c0d0 f i CoinZombieObject.obj
 0001:0000b100       ??$forward@AAPAVCoinObject@@@std@@YAAAPAVCoinObject@@AAPAV1@@Z 0040c100 f i CoinZombieObject.obj
 0001:0000b120       ??$forward@ABQAVCoinObject@@@std@@YAABQAVCoinObject@@ABQAV1@@Z 0040c120 f i CoinZombieObject.obj
 0001:0000b140       ??$forward@UZombieColor@@@std@@YA$$QAUZombieColor@@AAU1@@Z 0040c140 f i CoinZombieObject.obj
 0001:0000b160       ??$forward@V?$vector@PAVCoinObject@@V?$allocator@PAVCoinObject@@@std@@@std@@@std@@YA$$QAV?$vector@PAVCoinObject@@V?$allocator@PAVCoinObject@@@std@@@0@AAV10@@Z 0040c160 f i CoinZombieObject.obj
 0001:0000b180       ??$forward@V?$vector@UZombieColor@@V?$allocator@UZombieColor@@@std@@@std@@@std@@YA$$QAV?$vector@UZombieColor@@V?$allocator@UZombieColor@@@std@@@0@AAV10@@Z 0040c180 f i CoinZombieObject.obj
 0001:0000b1a0       ??0?$_Vector_alloc@$0A@U?$_Vec_base_types@PAVCoinObject@@V?$allocator@PAVCoinObject@@@std@@@std@@@std@@QAE@ABV?$allocator@PAVCoinObject@@@1@@Z 0040c1a0 f i CoinZombieObject.obj
 0001:0000b1d0       ??0?$_Vector_alloc@$0A@U?$_Vec_base_types@UZombieColor@@V?$allocator@UZombieColor@@@std@@@std@@@std@@QAE@ABV?$allocator@UZombieColor@@@1@@Z 0040c1d0 f i CoinZombieObject.obj
 0001:0000b200       ??0?$_Vector_const_iterator@V?$_Vector_val@U?$_Simple_types@PAVCoinObject@@@std@@@std@@@std@@QAE@PAPAVCoinObject@@PBU_Container_base0@1@@Z 0040c200 f i CoinZombieObject.obj
 0001:0000b240       ??0?$_Vector_iterator@V?$_Vector_val@U?$_Simple_types@PAVCoinObject@@@std@@@std@@@std@@QAE@PAPAVCoinObject@@PBU_Container_base0@1@@Z 0040c240 f i CoinZombieObject.obj
 0001:0000b280       ??0?$_Vector_val@U?$_Simple_types@PAVCoinObject@@@std@@@std@@QAE@XZ 0040c280 f i CoinZombieObject.obj
 0001:0000b2c0       ??0?$_Vector_val@U?$_Simple_types@UZombieColor@@@std@@@std@@QAE@XZ 0040c2c0 f i CoinZombieObject.obj
 0001:0000b300       ??0?$_Wrap_alloc@V?$allocator@PAVCoinObject@@@std@@@std@@QAE@XZ 0040c300 f i CoinZombieObject.obj
 0001:0000b330       ??0?$_Wrap_alloc@V?$allocator@UZombieColor@@@std@@@std@@QAE@XZ 0040c330 f i CoinZombieObject.obj
 0001:0000b360       ??0?$allocator@PAVCoinObject@@@std@@QAE@XZ 0040c360 f i CoinZombieObject.obj
 0001:0000b380       ??0?$allocator@UZombieColor@@@std@@QAE@XZ 0040c380 f i CoinZombieObject.obj
 0001:0000b3a0       ??0?$vector@PAVCoinObject@@V?$allocator@PAVCoinObject@@@std@@@std@@QAE@$$QAV01@@Z 0040c3a0 f i CoinZombieObject.obj
 0001:0000b400       ??0?$vector@PAVCoinObject@@V?$allocator@PAVCoinObject@@@std@@@std@@QAE@XZ 0040c400 f i CoinZombieObject.obj
 0001:0000b430       ??0?$vector@UZombieColor@@V?$allocator@UZombieColor@@@std@@@std@@QAE@$$QAV01@@Z 0040c430 f i CoinZombieObject.obj
 0001:0000b490       ??0?$vector@UZombieColor@@V?$allocator@UZombieColor@@@std@@@std@@QAE@XZ 0040c490 f i CoinZombieObject.obj
 0001:0000b4c0       ??0CoinZombieObject@@QAE@PAVPlayState@@HHH@Z 0040c4c0 f   CoinZombieObject.obj
 0001:0000b560       ??0ZombieColor@@QAE@II@Z   0040c560 f i CoinZombieObject.obj
 0001:0000b5a0       ??1?$vector@PAVCoinObject@@V?$allocator@PAVCoinObject@@@std@@@std@@QAE@XZ 0040c5a0 f i CoinZombieObject.obj
 0001:0000b5d0       ??1?$vector@UZombieColor@@V?$allocator@UZombieColor@@@std@@@std@@QAE@XZ 0040c5d0 f i CoinZombieObject.obj
 0001:0000b600       ??1CoinZombieObject@@UAE@XZ 0040c600 f   CoinZombieObject.obj
 0001:0000b630       ??8?$_Vector_const_iterator@V?$_Vector_val@U?$_Simple_types@PAVCoinObject@@@std@@@std@@@std@@QBE_NABV01@@Z 0040c630 f i CoinZombieObject.obj
 0001:0000b680       ??9?$_Vector_const_iterator@V?$_Vector_val@U?$_Simple_types@PAVCoinObject@@@std@@@std@@@std@@QBE_NABV01@@Z 0040c680 f i CoinZombieObject.obj
 0001:0000b6d0       ??A?$vector@PAVDisplayableObject@@V?$allocator@PAVDisplayableObject@@@std@@@std@@QAEAAPAVDisplayableObject@@I@Z 0040c6d0 f i CoinZombieObject.obj
 0001:0000b700       ??D?$_Vector_const_iterator@V?$_Vector_val@U?$_Simple_types@PAVCoinObject@@@std@@@std@@@std@@QBEABQAVCoinObject@@XZ 0040c700 f i CoinZombieObject.obj
 0001:0000b720       ??D?$_Vector_iterator@V?$_Vector_val@U?$_Simple_types@PAVCoinObject@@@std@@@std@@@std@@QBEAAPAVCoinObject@@XZ 0040c720 f i CoinZombieObject.obj
 0001:0000b750       ??E?$_Vector_const_iterator@V?$_Vector_val@U?$_Simple_types@PAVCoinObject@@@std@@@std@@@std@@QAEAAV01@XZ 0040c750 f i CoinZombieObject.obj
 0001:0000b780       ??E?$_Vector_iterator@V?$_Vector_val@U?$_Simple_types@PAVCoinObject@@@std@@@std@@@std@@QAEAAV01@XZ 0040c780 f i CoinZombieObject.obj
 0001:0000b7b0       ??_ECoinZombieObject@@UAEPAXI@Z 0040c7b0 f i CoinZombieObject.obj
 0001:0000b7b0       ??_GCoinZombieObject@@UAEPAXI@Z 0040c7b0 f i CoinZombieObject.obj
 0001:0000b800       ?GetColorOptions@CoinZombieObject@@UAE?AV?$vector@UZombieColor@@V?$allocator@UZombieColor@@@std@@@std@@XZ 0040c800 f   CoinZombieObject.obj
 0001:0000b8c0       ?MovedTile@CoinZombieObject@@UAEXHH@Z 0040c8c0 f   CoinZombieObject.obj
 0001:0000ba00       ?ReachedGoal@CoinZombieObject@@UAEXXZ 0040ca00 f   CoinZombieObject.obj
 0001:0000ba50       ?_Assign_rv@?$vector@PAVCoinObject@@V?$allocator@PAVCoinObject@@@std@@@std@@QAEX$$QAV12@U?$integral_constant@_N$00@2@@Z 0040ca50 f i CoinZombieObject.obj
 0001:0000bad0       ?_Assign_rv@?$vector@UZombieColor@@V?$allocator@UZombieColor@@@std@@@std@@QAEX$$QAV12@U?$integral_constant@_N$00@2@@Z 0040cad0 f i CoinZombieObject.obj
 0001:0000bb50       ?_Compat@?$_Vector_const_iterator@V?$_Vector_val@U?$_Simple_types@PAVCoinObject@@@std@@@std@@@std@@QBEXABV12@@Z 0040cb50 f i CoinZombieObject.obj
 0001:0000bb70       ?_Destroy@?$vector@PAVCoinObject@@V?$allocator@PAVCoinObject@@@std@@@std@@IAEXPAPAVCoinObject@@0@Z 0040cb70 f i CoinZombieObject.obj
 0001:0000bbc0       ?_Destroy@?$vector@UZombieColor@@V?$allocator@UZombieColor@@@std@@@std@@IAEXPAUZombieColor@@0@Z 0040cbc0 f i CoinZombieObject.obj
 0001:0000bc10       ?_Getal@?$_Vector_alloc@$0A@U?$_Vec_base_types@PAVCoinObject@@V?$allocator@PAVCoinObject@@@std@@@std@@@std@@QBE?AU?$_Wrap_alloc@V?$allocator@PAVCoinObject@@@std@@@2@XZ 0040cc10 f i CoinZombieObject.obj
 0001:0000bc40       ?_Getal@?$_Vector_alloc@$0A@U?$_Vec_base_types@UZombieColor@@V?$allocator@UZombieColor@@@std@@@std@@@std@@QBE?AU?$_Wrap_alloc@V?$allocator@UZombieColor@@@std@@@2@XZ 0040cc40 f i CoinZombieObject.obj
 0001:0000bc70       ?_Grow_to@?$vector@PAVCoinObject@@V?$allocator@PAVCoinObject@@@std@@@std@@IBEII@Z 0040cc70 f i CoinZombieObject.obj
 0001:0000bcf0       ?_Grow_to@?$vector@UZombieColor@@V?$allocator@UZombieColor@@@std@@@std@@IBEII@Z 0040ccf0 f i CoinZombieObject.obj
 0001:0000bd70       ?_Inside@?$vector@PAVCoinObject@@V?$allocator@PAVCoinObject@@@std@@@std@@IBE_NPBQAVCoinObject@@@Z 0040cd70 f i CoinZombieObject.obj
 0001:0000bdc0       ?_Inside@?$vector@UZombieColor@@V?$allocator@UZombieColor@@@std@@@std@@IBE_NPBUZombieColor@@@Z 0040cdc0 f i CoinZombieObject.obj
 0001:0000be10       ?_Orphan_range@?$vector@PAVCoinObject@@V?$allocator@PAVCoinObject@@@std@@@std@@IBEXPAPAVCoinObject@@0@Z 0040ce10 f i CoinZombieObject.obj
 0001:0000be30       ?_Orphan_range@?$vector@UZombieColor@@V?$allocator@UZombieColor@@@std@@@std@@IBEXPAUZombieColor@@0@Z 0040ce30 f i CoinZombieObject.obj
 0001:0000be50       ?_Reallocate@?$vector@PAVCoinObject@@V?$allocator@PAVCoinObject@@@std@@@std@@IAEXI@Z 0040ce50 f i CoinZombieObject.obj
 0001:0000bfe0       ?_Reallocate@?$vector@UZombieColor@@V?$allocator@UZombieColor@@@std@@@std@@IAEXI@Z 0040cfe0 f i CoinZombieObject.obj
 0001:0000c170       ?_Reserve@?$vector@PAVCoinObject@@V?$allocator@PAVCoinObject@@@std@@@std@@IAEXI@Z 0040d170 f i CoinZombieObject.obj
 0001:0000c1f0       ?_Reserve@?$vector@UZombieColor@@V?$allocator@UZombieColor@@@std@@@std@@IAEXI@Z 0040d1f0 f i CoinZombieObject.obj
 0001:0000c270       ?_Tidy@?$vector@PAVCoinObject@@V?$allocator@PAVCoinObject@@@std@@@std@@IAEXXZ 0040d270 f i CoinZombieObject.obj
 0001:0000c310       ?_Tidy@?$vector@UZombieColor@@V?$allocator@UZombieColor@@@std@@@std@@IAEXXZ 0040d310 f i CoinZombieObject.obj
 0001:0000c3b0       ?_Unused_capacity@?$vector@PAVCoinObject@@V?$allocator@PAVCoinObject@@@std@@@std@@QBEIXZ 0040d3b0 f i CoinZombieObject.obj
 0001:0000c3e0       ?_Unused_capacity@?$vector@UZombieColor@@V?$allocator@UZombieColor@@@std@@@std@@QBEIXZ 0040d3e0 f i CoinZombieObject.obj
 0001:0000c410       ?_Xlen@?$vector@PAVCoinObject@@V?$allocator@PAVCoinObject@@@std@@@std@@IBEXXZ 0040d410 f i CoinZombieObject.obj
 0001:0000c440       ?_Xlen@?$vector@UZombieColor@@V?$allocator@UZombieColor@@@std@@@std@@IBEXXZ 0040d440 f i CoinZombieObject.obj
 0001:0000c470       ?allocate@?$_Wrap_alloc@V?$allocator@PAVCoinObject@@@std@@@std@@QAEPAPAVCoinObject@@I@Z 0040d470 f i CoinZombieObject.obj
 0001:0000c4a0       ?allocate@?$_Wrap_alloc@V?$allocator@UZombieColor@@@std@@@std@@QAEPAUZombieColor@@I@Z 0040d4a0 f i CoinZombieObject.obj
 0001:0000c4d0       ?allocate@?$allocator@PAVCoinObject@@@std@@QAEPAPAVCoinObject@@I@Z 0040d4d0 f i CoinZombieObject.obj
 0001:0000c500       ?allocate@?$allocator@UZombieColor@@@std@@QAEPAUZombieColor@@I@Z 0040d500 f i CoinZombieObject.obj
 0001:0000c530       ?begin@?$vector@PAVCoinObject@@V?$allocator@PAVCoinObject@@@std@@@std@@QAE?AV?$_Vector_iterator@V?$_Vector_val@U?$_Simple_types@PAVCoinObject@@@std@@@std@@@2@XZ 0040d530 f i CoinZombieObject.obj
 0001:0000c570       ?capacity@?$vector@PAVCoinObject@@V?$allocator@PAVCoinObject@@@std@@@std@@QBEIXZ 0040d570 f i CoinZombieObject.obj
 0001:0000c5a0       ?capacity@?$vector@UZombieColor@@V?$allocator@UZombieColor@@@std@@@std@@QBEIXZ 0040d5a0 f i CoinZombieObject.obj
 0001:0000c5d0       ?construct@?$allocator@PAVCoinObject@@@std@@QAEXPAPAVCoinObject@@ABQAV3@@Z 0040d5d0 f i CoinZombieObject.obj
 0001:0000c630       ?deallocate@?$_Wrap_alloc@V?$allocator@PAVCoinObject@@@std@@@std@@QAEXPAPAVCoinObject@@I@Z 0040d630 f i CoinZombieObject.obj
 0001:0000c660       ?deallocate@?$_Wrap_alloc@V?$allocator@UZombieColor@@@std@@@std@@QAEXPAUZombieColor@@I@Z 0040d660 f i CoinZombieObject.obj
 0001:0000c690       ?deallocate@?$allocator@PAVCoinObject@@@std@@QAEXPAPAVCoinObject@@I@Z 0040d690 f i CoinZombieObject.obj
 0001:0000c6c0       ?deallocate@?$allocator@UZombieColor@@@std@@QAEXPAUZombieColor@@I@Z 0040d6c0 f i CoinZombieObject.obj
 0001:0000c6f0       ?end@?$vector@PAVCoinObject@@V?$allocator@PAVCoinObject@@@std@@@std@@QAE?AV?$_Vector_iterator@V?$_Vector_val@U?$_Simple_types@PAVCoinObject@@@std@@@std@@@2@XZ 0040d6f0 f i CoinZombieObject.obj
 0001:0000c730       ?max_size@?$_Wrap_alloc@V?$allocator@PAVCoinObject@@@std@@@std@@QBEIXZ 0040d730 f i CoinZombieObject.obj
 0001:0000c760       ?max_size@?$_Wrap_alloc@V?$allocator@UZombieColor@@@std@@@std@@QBEIXZ 0040d760 f i CoinZombieObject.obj
 0001:0000c790       ?max_size@?$allocator@PAVCoinObject@@@std@@QBEIXZ 0040d790 f i CoinZombieObject.obj
 0001:0000c7b0       ?max_size@?$allocator@UZombieColor@@@std@@QBEIXZ 0040d7b0 f i CoinZombieObject.obj
 0001:0000c7d0       ?max_size@?$allocator_traits@V?$allocator@PAVCoinObject@@@std@@@std@@SAIABV?$allocator@PAVCoinObject@@@2@@Z 0040d7d0 f i CoinZombieObject.obj
 0001:0000c7f0       ?max_size@?$allocator_traits@V?$allocator@UZombieColor@@@std@@@std@@SAIABV?$allocator@UZombieColor@@@2@@Z 0040d7f0 f i CoinZombieObject.obj
 0001:0000c810       ?max_size@?$vector@PAVCoinObject@@V?$allocator@PAVCoinObject@@@std@@@std@@QBEIXZ 0040d810 f i CoinZombieObject.obj
 0001:0000c840       ?max_size@?$vector@UZombieColor@@V?$allocator@UZombieColor@@@std@@@std@@QBEIXZ 0040d840 f i CoinZombieObject.obj
 0001:0000c870       ?push_back@?$vector@PAVCoinObject@@V?$allocator@PAVCoinObject@@@std@@@std@@QAEXABQAVCoinObject@@@Z 0040d870 f i CoinZombieObject.obj
 0001:0000c9c0       ?push_back@?$vector@UZombieColor@@V?$allocator@UZombieColor@@@std@@@std@@QAEX$$QAUZombieColor@@@Z 0040d9c0 f i CoinZombieObject.obj
 0001:0000cb30       ?size@?$vector@PAVCoinObject@@V?$allocator@PAVCoinObject@@@std@@@std@@QBEIXZ 0040db30 f i CoinZombieObject.obj
 0001:0000cb60       ?size@?$vector@PAVDisplayableObject@@V?$allocator@PAVDisplayableObject@@@std@@@std@@QBEIXZ 0040db60 f i CoinZombieObject.obj
 0001:0000cb90       ?size@?$vector@UZombieColor@@V?$allocator@UZombieColor@@@std@@@std@@QBEIXZ 0040db90 f i CoinZombieObject.obj
 0001:0000cbc0       ??0?$_Vector_alloc@$0A@U?$_Vec_base_types@PAVImageData@@V?$allocator@PAVImageData@@@std@@@std@@@std@@QAE@ABV?$allocator@PAVImageData@@@1@@Z 0040dbc0 f i CollectableObject.obj
 0001:0000cbf0       ??0?$_Vector_val@U?$_Simple_types@PAVImageData@@@std@@@std@@QAE@XZ 0040dbf0 f i CollectableObject.obj
 0001:0000cc30       ??0?$allocator@PAVImageData@@@std@@QAE@XZ 0040dc30 f i CollectableObject.obj
 0001:0000cc50       ??0?$vector@PAVImageData@@V?$allocator@PAVImageData@@@std@@@std@@QAE@XZ 0040dc50 f i CollectableObject.obj
 0001:0000cc80       ??0CollectableObject@@QAE@PAVPlayState@@HH@Z 0040dc80 f   CollectableObject.obj
 0001:0000cd00       ??1CollectableObject@@UAE@XZ 0040dd00 f   CollectableObject.obj
 0001:0000cd30       ??A?$vector@PAVImageData@@V?$allocator@PAVImageData@@@std@@@std@@QAEAAPAVImageData@@I@Z 0040dd30 f i CollectableObject.obj
 0001:0000cd60       ??_GCollectableObject@@UAEPAXI@Z 0040dd60 f i CollectableObject.obj
 0001:0000cd60       ??_ECollectableObject@@UAEPAXI@Z 0040dd60 f i CollectableObject.obj
 0001:0000cdb0       ?Collect@CollectableObject@@EAEXXZ 0040ddb0 f   CollectableObject.obj
 0001:0000cdd0       ?CollectObject@CollectableObject@@QAEXXZ 0040ddd0 f   CollectableObject.obj
 0001:0000ce30       ?DoUpdate@CollectableObject@@UAEXH@Z 0040de30 f   CollectableObject.obj
 0001:0000cec0       ?Draw@CollectableObject@@UAEXXZ 0040dec0 f   CollectableObject.obj
 0001:0000cf70       ?GetForeground@BaseEngine@@QAEPAUSDL_Surface@@XZ 0040df70 f i CollectableObject.obj
 0001:0000cf90       ?GetHeight@ImageData@@QBEHXZ 0040df90 f i CollectableObject.obj
 0001:0000cfb0       ?GetSprites@CollectableObject@@EAEAAV?$vector@PAVImageData@@V?$allocator@PAVImageData@@@std@@@std@@XZ 0040dfb0 f i CollectableObject.obj
 0001:0000d050       ?GetWidth@ImageData@@QBEHXZ 0040e050 f i CollectableObject.obj
 0001:0000d070       ?SetVisible@DisplayableObject@@QAEX_N@Z 0040e070 f i CollectableObject.obj
 0001:0000d0a0       ?size@?$vector@PAVImageData@@V?$allocator@PAVImageData@@@std@@@std@@QBEIXZ 0040e0a0 f i CollectableObject.obj
 0001:0000d0d0       ??$?6U?$char_traits@D@std@@@std@@YAAAV?$basic_ostream@DU?$char_traits@D@std@@@0@AAV10@PBD@Z 0040e0d0 f i DiedState.obj
 0001:0000d560       ??$forward@V?$basic_string@DU?$char_traits@D@std@@V?$allocator@D@2@@std@@@std@@YA$$QAV?$basic_string@DU?$char_traits@D@std@@V?$allocator@D@2@@0@AAV10@@Z 0040e560 f i DiedState.obj
 0001:0000d580       ??0?$basic_ostringstream@DU?$char_traits@D@std@@V?$allocator@D@2@@std@@QAE@H@Z 0040e580 f i DiedState.obj
 0001:0000d690       ??0?$basic_string@DU?$char_traits@D@std@@V?$allocator@D@2@@std@@QAE@$$QAV01@@Z 0040e690 f i DiedState.obj
 0001:0000d700       ??0?$basic_string@DU?$char_traits@D@std@@V?$allocator@D@2@@std@@QAE@PBDI@Z 0040e700 f i DiedState.obj
 0001:0000d760       ??0?$basic_string@DU?$char_traits@D@std@@V?$allocator@D@2@@std@@QAE@XZ 0040e760 f i DiedState.obj
 0001:0000d7a0       ??0?$basic_stringbuf@DU?$char_traits@D@std@@V?$allocator@D@2@@std@@QAE@H@Z 0040e7a0 f i DiedState.obj
 0001:0000d850       ??0?$fpos@H@std@@QAE@_J@Z  0040e850 f i DiedState.obj
 0001:0000d8b0       ??0DiedState@@QAE@PAVPsyja2Engine@@PAVPlayState@@@Z 0040e8b0 f   DiedState.obj
 0001:0000d960       ??0_Sentry_base@?$basic_ostream@DU?$char_traits@D@std@@@std@@QAE@AAV12@@Z 0040e960 f i DiedState.obj
 0001:0000d9e0       ??0sentry@?$basic_ostream@DU?$char_traits@D@std@@@std@@QAE@AAV12@@Z 0040e9e0 f i DiedState.obj
 0001:0000daf0       ??1?$basic_ostringstream@DU?$char_traits@D@std@@V?$allocator@D@2@@std@@UAE@XZ 0040eaf0 f i DiedState.obj
 0001:0000db60       ??1?$basic_string@DU?$char_traits@D@std@@V?$allocator@D@2@@std@@QAE@XZ 0040eb60 f i DiedState.obj
 0001:0000db90       ??1?$basic_stringbuf@DU?$char_traits@D@std@@V?$allocator@D@2@@std@@UAE@XZ 0040eb90 f i DiedState.obj
 0001:0000dbd0       ??1DiedState@@QAE@XZ       0040ebd0 f   DiedState.obj
 0001:0000dc00       ??1_Sentry_base@?$basic_ostream@DU?$char_traits@D@std@@@std@@QAE@XZ 0040ec00 f i DiedState.obj
 0001:0000dc70       ??1sentry@?$basic_ostream@DU?$char_traits@D@std@@@std@@QAE@XZ 0040ec70 f i DiedState.obj
 0001:0000dcb0       ??B?$fpos@H@std@@QBE_JXZ   0040ecb0 f i DiedState.obj
 0001:0000dcf0       ??Bsentry@?$basic_ostream@DU?$char_traits@D@std@@@std@@QBE_NXZ 0040ecf0 f i DiedState.obj
 0001:0000dd10       ??_D?$basic_ostringstream@DU?$char_traits@D@std@@V?$allocator@D@2@@std@@QAEXXZ 0040ed10 f i DiedState.obj
 0001:0000dd44       ??_E?$basic_ostringstream@DU?$char_traits@D@std@@V?$allocator@D@2@@std@@$4PPPPPPPM@A@AEPAXI@Z 0040ed44 f i DiedState.obj
 0001:0000dd50       ??_G?$basic_ostringstream@DU?$char_traits@D@std@@V?$allocator@D@2@@std@@UAEPAXI@Z 0040ed50 f i DiedState.obj
 0001:0000dd50       ??_E?$basic_ostringstream@DU?$char_traits@D@std@@V?$allocator@D@2@@std@@UAEPAXI@Z 0040ed50 f i DiedState.obj
 0001:0000dda0       ??_E?$basic_stringbuf@DU?$char_traits@D@std@@V?$allocator@D@2@@std@@UAEPAXI@Z 0040eda0 f i DiedState.obj
 0001:0000dda0       ??_G?$basic_stringbuf@DU?$char_traits@D@std@@V?$allocator@D@2@@std@@UAEPAXI@Z 0040eda0 f i DiedState.obj
 0001:0000ddf0       ?DrawStrings@DiedState@@UAEXXZ 0040edf0 f   DiedState.obj
 0001:0000de20       ?DrawStringsOnTop@DiedState@@UAEXXZ 0040ee20 f   DiedState.obj
 0001:0000e020       ?GameAction@DiedState@@UAEXXZ 0040f020 f   DiedState.obj
 0001:0000e070       ?GetScreenHeight@BaseEngine@@QBEHXZ 0040f070 f i DiedState.obj
 0001:0000e090       ?GetScreenWidth@BaseEngine@@QBEHXZ 0040f090 f i DiedState.obj
 0001:0000e0b0       ?IsTimeToActWithSleep@BaseEngine@@QBE_NXZ 0040f0b0 f i DiedState.obj
 0001:0000e130       ?KeyDown@DiedState@@UAEXH@Z 0040f130 f   DiedState.obj
 0001:0000e190       ?SetTimeToAct@BaseEngine@@QAEXH@Z 0040f190 f i DiedState.obj
 0001:0000e1c0       ?SetupBackgroundBuffer@DiedState@@UAEXXZ 0040f1c0 f   DiedState.obj
 0001:0000e1f0       ?_Assign_rv@?$basic_string@DU?$char_traits@D@std@@V?$allocator@D@2@@std@@QAEX$$QAV12@@Z 0040f1f0 f i DiedState.obj
 0001:0000e2a0       ?_Getstate@?$basic_stringbuf@DU?$char_traits@D@std@@V?$allocator@D@2@@std@@AAEHH@Z 0040f2a0 f i DiedState.obj
 0001:0000e320       ?_Init@?$basic_stringbuf@DU?$char_traits@D@std@@V?$allocator@D@2@@std@@IAEXPBDIH@Z 0040f320 f i DiedState.obj
 0001:0000e470       ?_Tidy@?$basic_stringbuf@DU?$char_traits@D@std@@V?$allocator@D@2@@std@@IAEXXZ 0040f470 f i DiedState.obj
 0001:0000e540       ?c_str@?$basic_string@DU?$char_traits@D@std@@V?$allocator@D@2@@std@@QBEPBDXZ 0040f540 f i DiedState.obj
 0001:0000e570       ?eof@?$char_traits@D@std@@SAHXZ 0040f570 f i DiedState.obj
 0001:0000e590       ?eq@?$char_traits@D@std@@SA_NABD0@Z 0040f590 f i DiedState.obj
 0001:0000e5d0       ?eq_int_type@?$char_traits@D@std@@SA_NABH0@Z 0040f5d0 f i DiedState.obj
 0001:0000e610       ?not_eof@?$char_traits@D@std@@SAHABH@Z 0040f610 f i DiedState.obj
 0001:0000e670       ?overflow@?$basic_stringbuf@DU?$char_traits@D@std@@V?$allocator@D@2@@std@@MAEHH@Z 0040f670 f i DiedState.obj
 0001:0000ea20       ?pbackfail@?$basic_stringbuf@DU?$char_traits@D@std@@V?$allocator@D@2@@std@@MAEHH@Z 0040fa20 f i DiedState.obj
 0001:0000eb50       ?seekoff@?$basic_stringbuf@DU?$char_traits@D@std@@V?$allocator@D@2@@std@@MAE?AV?$fpos@H@2@_JHH@Z 0040fb50 f i DiedState.obj
 0001:0000eec0       ?seekpos@?$basic_stringbuf@DU?$char_traits@D@std@@V?$allocator@D@2@@std@@MAE?AV?$fpos@H@2@V32@H@Z 0040fec0 f i DiedState.obj
 0001:0000f140       ?str@?$basic_ostringstream@DU?$char_traits@D@std@@V?$allocator@D@2@@std@@QBE?AV?$basic_string@DU?$char_traits@D@std@@V?$allocator@D@2@@2@XZ 00410140 f i DiedState.obj
 0001:0000f190       ?str@?$basic_stringbuf@DU?$char_traits@D@std@@V?$allocator@D@2@@std@@QBE?AV?$basic_string@DU?$char_traits@D@std@@V?$allocator@D@2@@2@XZ 00410190 f i DiedState.obj
 0001:0000f360       ?to_char_type@?$char_traits@D@std@@SADABH@Z 00410360 f i DiedState.obj
 0001:0000f380       ?to_int_type@?$char_traits@D@std@@SAHABD@Z 00410380 f i DiedState.obj
 0001:0000f3a0       ?underflow@?$basic_stringbuf@DU?$char_traits@D@std@@V?$allocator@D@2@@std@@MAEHXZ 004103a0 f i DiedState.obj
 0001:0000f4f0       ??$?6DU?$char_traits@D@std@@V?$allocator@D@1@@std@@YAAAV?$basic_ostream@DU?$char_traits@D@std@@@0@AAV10@ABV?$basic_string@DU?$char_traits@D@std@@V?$allocator@D@2@@0@@Z 004104f0 f i GameoverState.obj
 0001:0000f8d0       ??0GameoverState@@QAE@PAVPsyja2Engine@@PAVPlayState@@@Z 004108d0 f   GameoverState.obj
 0001:0000f980       ??1GameoverState@@QAE@XZ   00410980 f   GameoverState.obj
 0001:0000f9b0       ??_GPlayState@@QAEPAXI@Z   004109b0 f i GameoverState.obj
 0001:0000fa00       ?DrawStrings@GameoverState@@UAEXXZ 00410a00 f   GameoverState.obj
 0001:0000fa30       ?DrawStringsOnTop@GameoverState@@UAEXXZ 00410a30 f   GameoverState.obj
 0001:0000fe90       ?GameAction@GameoverState@@UAEXXZ 00410e90 f   GameoverState.obj
 0001:0000fee0       ?KeyDown@GameoverState@@UAEXH@Z 00410ee0 f   GameoverState.obj
 0001:0000fff0       ?ResetLevel@Psyja2Engine@@QAEXXZ 00410ff0 f i GameoverState.obj
 0001:00010020       ?SetupBackgroundBuffer@GameoverState@@UAEXXZ 00411020 f   GameoverState.obj
 0001:00010050       ?to_string@std@@YA?AV?$basic_string@DU?$char_traits@D@std@@V?$allocator@D@2@@1@H@Z 00411050 f i GameoverState.obj
 0001:000100d0       ??0HealthBarObject@@QAE@PAVPlayState@@@Z 004110d0 f   HealthBarObject.obj
 0001:00010170       ??1HealthBarObject@@UAE@XZ 00411170 f   HealthBarObject.obj
 0001:000101a0       ??_EHealthBarObject@@UAEPAXI@Z 004111a0 f i HealthBarObject.obj
 0001:000101a0       ??_GHealthBarObject@@UAEPAXI@Z 004111a0 f i HealthBarObject.obj
 0001:000101f0       ?Draw@HealthBarObject@@UAEXXZ 004111f0 f   HealthBarObject.obj
 0001:000104f0       ??0HeartObject@@QAE@PAVPlayState@@HH@Z 004114f0 f   HeartObject.obj
 0001:00010540       ??1HeartObject@@UAE@XZ     00411540 f   HeartObject.obj
 0001:00010570       ??_EHeartObject@@UAEPAXI@Z 00411570 f i HeartObject.obj
 0001:00010570       ??_GHeartObject@@UAEPAXI@Z 00411570 f i HeartObject.obj
 0001:000105c0       ?Collect@HeartObject@@EAEXXZ 004115c0 f   HeartObject.obj
 0001:00010620       ?GetHeart@SpriteManager@@QAEAAV?$vector@PAVImageData@@V?$allocator@PAVImageData@@@std@@@std@@XZ 00411620 f i HeartObject.obj
 0001:00010640       ?GetSprites@HeartObject@@EAEAAV?$vector@PAVImageData@@V?$allocator@PAVImageData@@@std@@@std@@XZ 00411640 f i HeartObject.obj
 0001:00010670       ??$GetAllObjectsOfType@VHeartObject@@@BaseEngine@@QAE?AV?$vector@PAVHeartObject@@V?$allocator@PAVHeartObject@@@std@@@std@@XZ 00411670 f i HeartZombieObject.obj
 0001:00010790       ??$_Allocate@PAVHeartObject@@@std@@YAPAPAVHeartObject@@IPAPAV1@@Z 00411790 f i HeartZombieObject.obj
 0001:000107f0       ??$_Destroy_range@U?$_Wrap_alloc@V?$allocator@PAVHeartObject@@@std@@@std@@@std@@YAXPAPAVHeartObject@@0AAU?$_Wrap_alloc@V?$allocator@PAVHeartObject@@@std@@@0@@Z 004117f0 f i HeartZombieObject.obj
 0001:00010840       ??$_Destroy_range@U?$_Wrap_alloc@V?$allocator@PAVHeartObject@@@std@@@std@@@std@@YAXPAPAVHeartObject@@0AAU?$_Wrap_alloc@V?$allocator@PAVHeartObject@@@std@@@0@U_Scalar_ptr_iterator_tag@0@@Z 00411840 f i HeartZombieObject.obj
 0001:00010860       ??$_Ptr_cat@PAVHeartObject@@PAV1@@std@@YA?AU_Scalar_ptr_iterator_tag@0@PAPAVHeartObject@@0@Z 00411860 f i HeartZombieObject.obj
 0001:00010880       ??$_Rechecked@PAPAVHeartObject@@PAPAV1@@std@@YAAAPAPAVHeartObject@@AAPAPAV1@PAPAV1@@Z 00411880 f i HeartZombieObject.obj
 0001:000108b0       ??$_Umove@PAPAVHeartObject@@@?$vector@PAVHeartObject@@V?$allocator@PAVHeartObject@@@std@@@std@@IAEPAPAVHeartObject@@PAPAV2@00@Z 004118b0 f i HeartZombieObject.obj
 0001:00010900       ??$_Unchecked@PAPAVHeartObject@@@std@@YAPAPAVHeartObject@@PAPAV1@@Z 00411900 f i HeartZombieObject.obj
 0001:00010920       ??$_Uninit_move@PAPAVHeartObject@@PAPAV1@U?$_Wrap_alloc@V?$allocator@PAVHeartObject@@@std@@@std@@@std@@YAPAPAVHeartObject@@PAPAV1@00AAU?$_Wrap_alloc@V?$allocator@PAVHeartObject@@@std@@@0@@Z 00411920 f i HeartZombieObject.obj
 0001:00010980       ??$_Uninit_move@PAVHeartObject@@PAV1@PAV1@@std@@YAPAPAVHeartObject@@PAPAV1@00AAU?$_Wrap_alloc@V?$allocator@PAVHeartObject@@@std@@@0@0U_Scalar_ptr_iterator_tag@0@@Z 00411980 f i HeartZombieObject.obj
 0001:000109d0       ??$_Uninitialized_move@PAPAVHeartObject@@PAPAV1@U?$_Wrap_alloc@V?$allocator@PAVHeartObject@@@std@@@std@@@std@@YAPAPAVHeartObject@@PAPAV1@00AAU?$_Wrap_alloc@V?$allocator@PAVHeartObject@@@std@@@0@@Z 004119d0 f i HeartZombieObject.obj
 0001:00010a40       ??$_Val_type@PAPAVHeartObject@@@std@@YAPAPAVHeartObject@@PAPAV1@@Z 00411a40 f i HeartZombieObject.obj
 0001:00010a60       ??$addressof@QAVHeartObject@@@std@@YAPBQAVHeartObject@@ABQAV1@@Z 00411a60 f i HeartZombieObject.obj
 0001:00010a80       ??$construct@PAVHeartObject@@AAPAV1@@?$_Wrap_alloc@V?$allocator@PAVHeartObject@@@std@@@std@@QAEXPAPAVHeartObject@@AAPAV2@@Z 00411a80 f i HeartZombieObject.obj
 0001:00010ac0       ??$construct@PAVHeartObject@@AAPAV1@@?$allocator@PAVHeartObject@@@std@@QAEXPAPAVHeartObject@@AAPAV2@@Z 00411ac0 f i HeartZombieObject.obj
 0001:00010b70       ??$construct@PAVHeartObject@@AAPAV1@@?$allocator_traits@V?$allocator@PAVHeartObject@@@std@@@std@@SAXAAV?$allocator@PAVHeartObject@@@1@PAPAVHeartObject@@AAPAV3@@Z 00411b70 f i HeartZombieObject.obj
 0001:00010bb0       ??$construct@PAVHeartObject@@ABQAV1@@?$_Wrap_alloc@V?$allocator@PAVHeartObject@@@std@@@std@@QAEXPAPAVHeartObject@@ABQAV2@@Z 00411bb0 f i HeartZombieObject.obj
 0001:00010bf0       ??$construct@PAVHeartObject@@ABQAV1@@?$allocator_traits@V?$allocator@PAVHeartObject@@@std@@@std@@SAXAAV?$allocator@PAVHeartObject@@@1@PAPAVHeartObject@@ABQAV3@@Z 00411bf0 f i HeartZombieObject.obj
 0001:00010c30       ??$forward@AAPAVHeartObject@@@std@@YAAAPAVHeartObject@@AAPAV1@@Z 00411c30 f i HeartZombieObject.obj
 0001:00010c50       ??$forward@ABQAVHeartObject@@@std@@YAABQAVHeartObject@@ABQAV1@@Z 00411c50 f i HeartZombieObject.obj
 0001:00010c70       ??$forward@V?$vector@PAVHeartObject@@V?$allocator@PAVHeartObject@@@std@@@std@@@std@@YA$$QAV?$vector@PAVHeartObject@@V?$allocator@PAVHeartObject@@@std@@@0@AAV10@@Z 00411c70 f i HeartZombieObject.obj
 0001:00010c90       ??0?$_Vector_alloc@$0A@U?$_Vec_base_types@PAVHeartObject@@V?$allocator@PAVHeartObject@@@std@@@std@@@std@@QAE@ABV?$allocator@PAVHeartObject@@@1@@Z 00411c90 f i HeartZombieObject.obj
 0001:00010cc0       ??0?$_Vector_const_iterator@V?$_Vector_val@U?$_Simple_types@PAVHeartObject@@@std@@@std@@@std@@QAE@PAPAVHeartObject@@PBU_Container_base0@1@@Z 00411cc0 f i HeartZombieObject.obj
 0001:00010d00       ??0?$_Vector_iterator@V?$_Vector_val@U?$_Simple_types@PAVHeartObject@@@std@@@std@@@std@@QAE@PAPAVHeartObject@@PBU_Container_base0@1@@Z 00411d00 f i HeartZombieObject.obj
 0001:00010d40       ??0?$_Vector_val@U?$_Simple_types@PAVHeartObject@@@std@@@std@@QAE@XZ 00411d40 f i HeartZombieObject.obj
 0001:00010d80       ??0?$_Wrap_alloc@V?$allocator@PAVHeartObject@@@std@@@std@@QAE@XZ 00411d80 f i HeartZombieObject.obj
 0001:00010db0       ??0?$allocator@PAVHeartObject@@@std@@QAE@XZ 00411db0 f i HeartZombieObject.obj
 0001:00010dd0       ??0?$vector@PAVHeartObject@@V?$allocator@PAVHeartObject@@@std@@@std@@QAE@$$QAV01@@Z 00411dd0 f i HeartZombieObject.obj
 0001:00010e30       ??0?$vector@PAVHeartObject@@V?$allocator@PAVHeartObject@@@std@@@std@@QAE@XZ 00411e30 f i HeartZombieObject.obj
 0001:00010e60       ??0HeartZombieObject@@QAE@PAVPlayState@@HHH@Z 00411e60 f   HeartZombieObject.obj
 0001:00010f00       ??1?$vector@PAVHeartObject@@V?$allocator@PAVHeartObject@@@std@@@std@@QAE@XZ 00411f00 f i HeartZombieObject.obj
 0001:00010f30       ??1HeartZombieObject@@UAE@XZ 00411f30 f   HeartZombieObject.obj
 0001:00010f60       ??8?$_Vector_const_iterator@V?$_Vector_val@U?$_Simple_types@PAVHeartObject@@@std@@@std@@@std@@QBE_NABV01@@Z 00411f60 f i HeartZombieObject.obj
 0001:00010fb0       ??9?$_Vector_const_iterator@V?$_Vector_val@U?$_Simple_types@PAVHeartObject@@@std@@@std@@@std@@QBE_NABV01@@Z 00411fb0 f i HeartZombieObject.obj
 0001:00011000       ??A?$vector@PAVHeartObject@@V?$allocator@PAVHeartObject@@@std@@@std@@QAEAAPAVHeartObject@@I@Z 00412000 f i HeartZombieObject.obj
 0001:00011030       ??D?$_Vector_const_iterator@V?$_Vector_val@U?$_Simple_types@PAVHeartObject@@@std@@@std@@@std@@QBEABQAVHeartObject@@XZ 00412030 f i HeartZombieObject.obj
 0001:00011050       ??D?$_Vector_iterator@V?$_Vector_val@U?$_Simple_types@PAVHeartObject@@@std@@@std@@@std@@QBEAAPAVHeartObject@@XZ 00412050 f i HeartZombieObject.obj
 0001:00011080       ??E?$_Vector_const_iterator@V?$_Vector_val@U?$_Simple_types@PAVHeartObject@@@std@@@std@@@std@@QAEAAV01@XZ 00412080 f i HeartZombieObject.obj
 0001:000110b0       ??E?$_Vector_iterator@V?$_Vector_val@U?$_Simple_types@PAVHeartObject@@@std@@@std@@@std@@QAEAAV01@XZ 004120b0 f i HeartZombieObject.obj
 0001:000110e0       ??_EHeartZombieObject@@UAEPAXI@Z 004120e0 f i HeartZombieObject.obj
 0001:000110e0       ??_GHeartZombieObject@@UAEPAXI@Z 004120e0 f i HeartZombieObject.obj
 0001:00011130       ?DoZombieUpdate@HeartZombieObject@@UAEXXZ 00412130 f   HeartZombieObject.obj
 0001:00011290       ?GetColorOptions@HeartZombieObject@@UAE?AV?$vector@UZombieColor@@V?$allocator@UZombieColor@@@std@@@std@@XZ 00412290 f   HeartZombieObject.obj
 0001:00011350       ?ReachedGoal@HeartZombieObject@@UAEXXZ 00412350 f   HeartZombieObject.obj
 0001:00011400       ?_Assign_rv@?$vector@PAVHeartObject@@V?$allocator@PAVHeartObject@@@std@@@std@@QAEX$$QAV12@U?$integral_constant@_N$00@2@@Z 00412400 f i HeartZombieObject.obj
 0001:00011480       ?_Compat@?$_Vector_const_iterator@V?$_Vector_val@U?$_Simple_types@PAVHeartObject@@@std@@@std@@@std@@QBEXABV12@@Z 00412480 f i HeartZombieObject.obj
 0001:000114a0       ?_Destroy@?$vector@PAVHeartObject@@V?$allocator@PAVHeartObject@@@std@@@std@@IAEXPAPAVHeartObject@@0@Z 004124a0 f i HeartZombieObject.obj
 0001:000114f0       ?_Getal@?$_Vector_alloc@$0A@U?$_Vec_base_types@PAVHeartObject@@V?$allocator@PAVHeartObject@@@std@@@std@@@std@@QBE?AU?$_Wrap_alloc@V?$allocator@PAVHeartObject@@@std@@@2@XZ 004124f0 f i HeartZombieObject.obj
 0001:00011520       ?_Grow_to@?$vector@PAVHeartObject@@V?$allocator@PAVHeartObject@@@std@@@std@@IBEII@Z 00412520 f i HeartZombieObject.obj
 0001:000115a0       ?_Inside@?$vector@PAVHeartObject@@V?$allocator@PAVHeartObject@@@std@@@std@@IBE_NPBQAVHeartObject@@@Z 004125a0 f i HeartZombieObject.obj
 0001:000115f0       ?_Orphan_range@?$vector@PAVHeartObject@@V?$allocator@PAVHeartObject@@@std@@@std@@IBEXPAPAVHeartObject@@0@Z 004125f0 f i HeartZombieObject.obj
 0001:00011610       ?_Reallocate@?$vector@PAVHeartObject@@V?$allocator@PAVHeartObject@@@std@@@std@@IAEXI@Z 00412610 f i HeartZombieObject.obj
 0001:000117a0       ?_Reserve@?$vector@PAVHeartObject@@V?$allocator@PAVHeartObject@@@std@@@std@@IAEXI@Z 004127a0 f i HeartZombieObject.obj
 0001:00011820       ?_Tidy@?$vector@PAVHeartObject@@V?$allocator@PAVHeartObject@@@std@@@std@@IAEXXZ 00412820 f i HeartZombieObject.obj
 0001:000118c0       ?_Unused_capacity@?$vector@PAVHeartObject@@V?$allocator@PAVHeartObject@@@std@@@std@@QBEIXZ 004128c0 f i HeartZombieObject.obj
 0001:000118f0       ?_Xlen@?$vector@PAVHeartObject@@V?$allocator@PAVHeartObject@@@std@@@std@@IBEXXZ 004128f0 f i HeartZombieObject.obj
 0001:00011920       ?allocate@?$_Wrap_alloc@V?$allocator@PAVHeartObject@@@std@@@std@@QAEPAPAVHeartObject@@I@Z 00412920 f i HeartZombieObject.obj
 0001:00011950       ?allocate@?$allocator@PAVHeartObject@@@std@@QAEPAPAVHeartObject@@I@Z 00412950 f i HeartZombieObject.obj
 0001:00011980       ?begin@?$vector@PAVHeartObject@@V?$allocator@PAVHeartObject@@@std@@@std@@QAE?AV?$_Vector_iterator@V?$_Vector_val@U?$_Simple_types@PAVHeartObject@@@std@@@std@@@2@XZ 00412980 f i HeartZombieObject.obj
 0001:000119c0       ?capacity@?$vector@PAVHeartObject@@V?$allocator@PAVHeartObject@@@std@@@std@@QBEIXZ 004129c0 f i HeartZombieObject.obj
 0001:000119f0       ?construct@?$allocator@PAVHeartObject@@@std@@QAEXPAPAVHeartObject@@ABQAV3@@Z 004129f0 f i HeartZombieObject.obj
 0001:00011a50       ?deallocate@?$_Wrap_alloc@V?$allocator@PAVHeartObject@@@std@@@std@@QAEXPAPAVHeartObject@@I@Z 00412a50 f i HeartZombieObject.obj
 0001:00011a80       ?deallocate@?$allocator@PAVHeartObject@@@std@@QAEXPAPAVHeartObject@@I@Z 00412a80 f i HeartZombieObject.obj
 0001:00011ab0       ?end@?$vector@PAVHeartObject@@V?$allocator@PAVHeartObject@@@std@@@std@@QAE?AV?$_Vector_iterator@V?$_Vector_val@U?$_Simple_types@PAVHeartObject@@@std@@@std@@@2@XZ 00412ab0 f i HeartZombieObject.obj
 0001:00011af0       ?max_size@?$_Wrap_alloc@V?$allocator@PAVHeartObject@@@std@@@std@@QBEIXZ 00412af0 f i HeartZombieObject.obj
 0001:00011b20       ?max_size@?$allocator@PAVHeartObject@@@std@@QBEIXZ 00412b20 f i HeartZombieObject.obj
 0001:00011b40       ?max_size@?$allocator_traits@V?$allocator@PAVHeartObject@@@std@@@std@@SAIABV?$allocator@PAVHeartObject@@@2@@Z 00412b40 f i HeartZombieObject.obj
 0001:00011b60       ?max_size@?$vector@PAVHeartObject@@V?$allocator@PAVHeartObject@@@std@@@std@@QBEIXZ 00412b60 f i HeartZombieObject.obj
 0001:00011b90       ?push_back@?$vector@PAVHeartObject@@V?$allocator@PAVHeartObject@@@std@@@std@@QAEXABQAVHeartObject@@@Z 00412b90 f i HeartZombieObject.obj
 0001:00011ce0       ?size@?$vector@PAVHeartObject@@V?$allocator@PAVHeartObject@@@std@@@std@@QBEIXZ 00412ce0 f i HeartZombieObject.obj
 0001:00011d10       ??$_Allocate@V?$basic_string@DU?$char_traits@D@std@@V?$allocator@D@2@@std@@@std@@YAPAV?$basic_string@DU?$char_traits@D@std@@V?$allocator@D@2@@0@IPAV10@@Z 00412d10 f i HelperFunctions.obj
 0001:00011d70       ??$_Destroy_range@U?$_Wrap_alloc@V?$allocator@V?$basic_string@DU?$char_traits@D@std@@V?$allocator@D@2@@std@@@std@@@std@@@std@@YAXPAV?$basic_string@DU?$char_traits@D@std@@V?$allocator@D@2@@0@0AAU?$_Wrap_alloc@V?$allocator@V?$basic_string@DU?$char_traits@D@std@@V?$allocator@D@2@@std@@@std@@@0@@Z 00412d70 f i HelperFunctions.obj
 0001:00011dc0       ??$_Destroy_range@U?$_Wrap_alloc@V?$allocator@V?$basic_string@DU?$char_traits@D@std@@V?$allocator@D@2@@std@@@std@@@std@@@std@@YAXPAV?$basic_string@DU?$char_traits@D@std@@V?$allocator@D@2@@0@0AAU?$_Wrap_alloc@V?$allocator@V?$basic_string@DU?$char_traits@D@std@@V?$allocator@D@2@@std@@@std@@@0@U_Nonscalar_ptr_iterator_tag@0@@Z 00412dc0 f i HelperFunctions.obj
 0001:00011e00       ??$_Pow_int@N@@YANNH@Z     00412e00 f i HelperFunctions.obj
 0001:00011ec0       ??$_Ptr_cat@V?$basic_string@DU?$char_traits@D@std@@V?$allocator@D@2@@std@@V12@@std@@YA?AU_Nonscalar_ptr_iterator_tag@0@PAV?$basic_string@DU?$char_traits@D@std@@V?$allocator@D@2@@0@0@Z 00412ec0 f i HelperFunctions.obj
 0001:00011ee0       ??$_Rechecked@PAV?$basic_string@DU?$char_traits@D@std@@V?$allocator@D@2@@std@@PAV12@@std@@YAAAPAV?$basic_string@DU?$char_traits@D@std@@V?$allocator@D@2@@0@AAPAV10@PAV10@@Z 00412ee0 f i HelperFunctions.obj
 0001:00011f10       ??$_Umove@PAV?$basic_string@DU?$char_traits@D@std@@V?$allocator@D@2@@std@@@?$vector@V?$basic_string@DU?$char_traits@D@std@@V?$allocator@D@2@@std@@V?$allocator@V?$basic_string@DU?$char_traits@D@std@@V?$allocator@D@2@@std@@@2@@std@@IAEPAV?$basic_string@DU?$char_traits@D@std@@V?$allocator@D@2@@1@PAV21@00@Z 00412f10 f i HelperFunctions.obj
 0001:00011f60       ??$_Unchecked@PAV?$basic_string@DU?$char_traits@D@std@@V?$allocator@D@2@@std@@@std@@YAPAV?$basic_string@DU?$char_traits@D@std@@V?$allocator@D@2@@0@PAV10@@Z 00412f60 f i HelperFunctions.obj
 0001:00011f80       ??$_Uninit_move@PAV?$basic_string@DU?$char_traits@D@std@@V?$allocator@D@2@@std@@PAV12@U?$_Wrap_alloc@V?$allocator@V?$basic_string@DU?$char_traits@D@std@@V?$allocator@D@2@@std@@@std@@@2@@std@@YAPAV?$basic_string@DU?$char_traits@D@std@@V?$allocator@D@2@@0@PAV10@00AAU?$_Wrap_alloc@V?$allocator@V?$basic_string@DU?$char_traits@D@std@@V?$allocator@D@2@@std@@@std@@@0@@Z 00412f80 f i HelperFunctions.obj
 0001:00011fe0       ??$_Uninit_move@PAV?$basic_string@DU?$char_traits@D@std@@V?$allocator@D@2@@std@@PAV12@V?$allocator@V?$basic_string@DU?$char_traits@D@std@@V?$allocator@D@2@@std@@@2@V12@@std@@YAPAV?$basic_string@DU?$char_traits@D@std@@V?$allocator@D@2@@0@PAV10@00AAU?$_Wrap_alloc@V?$allocator@V?$basic_string@DU?$char_traits@D@std@@V?$allocator@D@2@@std@@@std@@@0@0U_Nonscalar_ptr_iterator_tag@0@@Z 00412fe0 f i HelperFunctions.obj
 0001:000120d0       ??$_Uninitialized_move@PAV?$basic_string@DU?$char_traits@D@std@@V?$allocator@D@2@@std@@PAV12@U?$_Wrap_alloc@V?$allocator@V?$basic_string@DU?$char_traits@D@std@@V?$allocator@D@2@@std@@@std@@@2@@std@@YAPAV?$basic_string@DU?$char_traits@D@std@@V?$allocator@D@2@@0@PAV10@00AAU?$_Wrap_alloc@V?$allocator@V?$basic_string@DU?$char_traits@D@std@@V?$allocator@D@2@@std@@@std@@@0@@Z 004130d0 f i HelperFunctions.obj
 0001:00012140       ??$_Val_type@PAV?$basic_string@DU?$char_traits@D@std@@V?$allocator@D@2@@std@@@std@@YAPAV?$basic_string@DU?$char_traits@D@std@@V?$allocator@D@2@@0@PAV10@@Z 00413140 f i HelperFunctions.obj
 0001:00012160       ??$addressof@$$CBV?$basic_string@DU?$char_traits@D@std@@V?$allocator@D@2@@std@@@std@@YAPBV?$basic_string@DU?$char_traits@D@std@@V?$allocator@D@2@@0@ABV10@@Z 00413160 f i HelperFunctions.obj
 0001:00012180       ??$construct@V?$basic_string@DU?$char_traits@D@std@@V?$allocator@D@2@@std@@AAV12@@?$_Wrap_alloc@V?$allocator@V?$basic_string@DU?$char_traits@D@std@@V?$allocator@D@2@@std@@@std@@@std@@QAEXPAV?$basic_string@DU?$char_traits@D@std@@V?$allocator@D@2@@1@AAV21@@Z 00413180 f i HelperFunctions.obj
 0001:000121c0       ??$construct@V?$basic_string@DU?$char_traits@D@std@@V?$allocator@D@2@@std@@AAV12@@?$allocator@V?$basic_string@DU?$char_traits@D@std@@V?$allocator@D@2@@std@@@std@@QAEXPAV?$basic_string@DU?$char_traits@D@std@@V?$allocator@D@2@@1@AAV21@@Z 004131c0 f i HelperFunctions.obj
 0001:00012270       ??$construct@V?$basic_string@DU?$char_traits@D@std@@V?$allocator@D@2@@std@@AAV12@@?$allocator_traits@V?$allocator@V?$basic_string@DU?$char_traits@D@std@@V?$allocator@D@2@@std@@@std@@@std@@SAXAAV?$allocator@V?$basic_string@DU?$char_traits@D@std@@V?$allocator@D@2@@std@@@1@PAV?$basic_string@DU?$char_traits@D@std@@V?$allocator@D@2@@1@AAV31@@Z 00413270 f i HelperFunctions.obj
 0001:000122b0       ??$construct@V?$basic_string@DU?$char_traits@D@std@@V?$allocator@D@2@@std@@ABV12@@?$_Wrap_alloc@V?$allocator@V?$basic_string@DU?$char_traits@D@std@@V?$allocator@D@2@@std@@@std@@@std@@QAEXPAV?$basic_string@DU?$char_traits@D@std@@V?$allocator@D@2@@1@ABV21@@Z 004132b0 f i HelperFunctions.obj
 0001:000122f0       ??$construct@V?$basic_string@DU?$char_traits@D@std@@V?$allocator@D@2@@std@@ABV12@@?$allocator_traits@V?$allocator@V?$basic_string@DU?$char_traits@D@std@@V?$allocator@D@2@@std@@@std@@@std@@SAXAAV?$allocator@V?$basic_string@DU?$char_traits@D@std@@V?$allocator@D@2@@std@@@1@PAV?$basic_string@DU?$char_traits@D@std@@V?$allocator@D@2@@1@ABV31@@Z 004132f0 f i HelperFunctions.obj
 0001:00012330       ??$construct@V?$basic_string@DU?$char_traits@D@std@@V?$allocator@D@2@@std@@V12@@?$_Wrap_alloc@V?$allocator@V?$basic_string@DU?$char_traits@D@std@@V?$allocator@D@2@@std@@@std@@@std@@QAEXPAV?$basic_string@DU?$char_traits@D@std@@V?$allocator@D@2@@1@$$QAV21@@Z 00413330 f i HelperFunctions.obj
 0001:00012370       ??$construct@V?$basic_string@DU?$char_traits@D@std@@V?$allocator@D@2@@std@@V12@@?$allocator@V?$basic_string@DU?$char_traits@D@std@@V?$allocator@D@2@@std@@@std@@QAEXPAV?$basic_string@DU?$char_traits@D@std@@V?$allocator@D@2@@1@$$QAV21@@Z 00413370 f i HelperFunctions.obj
 0001:00012420       ??$construct@V?$basic_string@DU?$char_traits@D@std@@V?$allocator@D@2@@std@@V12@@?$allocator_traits@V?$allocator@V?$basic_string@DU?$char_traits@D@std@@V?$allocator@D@2@@std@@@std@@@std@@SAXAAV?$allocator@V?$basic_string@DU?$char_traits@D@std@@V?$allocator@D@2@@std@@@1@PAV?$basic_string@DU?$char_traits@D@std@@V?$allocator@D@2@@1@$$QAV31@@Z 00413420 f i HelperFunctions.obj
 0001:00012460       ??$destroy@V?$basic_string@DU?$char_traits@D@std@@V?$allocator@D@2@@std@@@?$_Wrap_alloc@V?$allocator@V?$basic_string@DU?$char_traits@D@std@@V?$allocator@D@2@@std@@@std@@@std@@QAEXPAV?$basic_string@DU?$char_traits@D@std@@V?$allocator@D@2@@1@@Z 00413460 f i HelperFunctions.obj
 0001:00012490       ??$destroy@V?$basic_string@DU?$char_traits@D@std@@V?$allocator@D@2@@std@@@?$allocator@V?$basic_string@DU?$char_traits@D@std@@V?$allocator@D@2@@std@@@std@@QAEXPAV?$basic_string@DU?$char_traits@D@std@@V?$allocator@D@2@@1@@Z 00413490 f i HelperFunctions.obj
 0001:000124c0       ??$destroy@V?$basic_string@DU?$char_traits@D@std@@V?$allocator@D@2@@std@@@?$allocator_traits@V?$allocator@V?$basic_string@DU?$char_traits@D@std@@V?$allocator@D@2@@std@@@std@@@std@@SAXAAV?$allocator@V?$basic_string@DU?$char_traits@D@std@@V?$allocator@D@2@@std@@@1@PAV?$basic_string@DU?$char_traits@D@std@@V?$allocator@D@2@@1@@Z 004134c0 f i HelperFunctions.obj
 0001:000124f0       ??$forward@AAV?$basic_string@DU?$char_traits@D@std@@V?$allocator@D@2@@std@@@std@@YAAAV?$basic_string@DU?$char_traits@D@std@@V?$allocator@D@2@@0@AAV10@@Z 004134f0 f i HelperFunctions.obj
 0001:00012510       ??$forward@ABV?$basic_string@DU?$char_traits@D@std@@V?$allocator@D@2@@std@@@std@@YAABV?$basic_string@DU?$char_traits@D@std@@V?$allocator@D@2@@0@ABV10@@Z 00413510 f i HelperFunctions.obj
 0001:00012530       ??$forward@V?$vector@V?$basic_string@DU?$char_traits@D@std@@V?$allocator@D@2@@std@@V?$allocator@V?$basic_string@DU?$char_traits@D@std@@V?$allocator@D@2@@std@@@2@@std@@@std@@YA$$QAV?$vector@V?$basic_string@DU?$char_traits@D@std@@V?$allocator@D@2@@std@@V?$allocator@V?$basic_string@DU?$char_traits@D@std@@V?$allocator@D@2@@std@@@2@@0@AAV10@@Z 00413530 f i HelperFunctions.obj
 0001:00012550       ??$max@N@std@@YAABNABN0@Z  00413550 f i HelperFunctions.obj
 0001:000125a0       ??$min@N@std@@YAABNABN0@Z  004135a0 f i HelperFunctions.obj
 0001:000125f0       ??0?$_Vector_alloc@$0A@U?$_Vec_base_types@V?$basic_string@DU?$char_traits@D@std@@V?$allocator@D@2@@std@@V?$allocator@V?$basic_string@DU?$char_traits@D@std@@V?$allocator@D@2@@std@@@2@@std@@@std@@QAE@ABV?$allocator@V?$basic_string@DU?$char_traits@D@std@@V?$allocator@D@2@@std@@@1@@Z 004135f0 f i HelperFunctions.obj
 0001:00012620       ??0?$_Vector_val@U?$_Simple_types@V?$basic_string@DU?$char_traits@D@std@@V?$allocator@D@2@@std@@@std@@@std@@QAE@XZ 00413620 f i HelperFunctions.obj
 0001:00012660       ??0?$_Wrap_alloc@V?$allocator@D@std@@@std@@QAE@ABV?$allocator@D@1@@Z 00413660 f i HelperFunctions.obj
 0001:00012690       ??0?$_Wrap_alloc@V?$allocator@V?$basic_string@DU?$char_traits@D@std@@V?$allocator@D@2@@std@@@std@@@std@@QAE@XZ 00413690 f i HelperFunctions.obj
 0001:000126c0       ??0?$allocator@D@std@@QAE@ABV01@@Z 004136c0 f i HelperFunctions.obj
 0001:000126e0       ??0?$allocator@V?$basic_string@DU?$char_traits@D@std@@V?$allocator@D@2@@std@@@std@@QAE@XZ 004136e0 f i HelperFunctions.obj
 0001:00012700       ??0?$basic_string@DU?$char_traits@D@std@@V?$allocator@D@2@@std@@QAE@ABV01@@Z 00413700 f i HelperFunctions.obj
 0001:00012770       ??0?$vector@V?$basic_string@DU?$char_traits@D@std@@V?$allocator@D@2@@std@@V?$allocator@V?$basic_string@DU?$char_traits@D@std@@V?$allocator@D@2@@std@@@2@@std@@QAE@$$QAV01@@Z 00413770 f i HelperFunctions.obj
 0001:000127d0       ??0?$vector@V?$basic_string@DU?$char_traits@D@std@@V?$allocator@D@2@@std@@V?$allocator@V?$basic_string@DU?$char_traits@D@std@@V?$allocator@D@2@@std@@@2@@std@@QAE@XZ 004137d0 f i HelperFunctions.obj
 0001:00012800       ??1?$vector@V?$basic_string@DU?$char_traits@D@std@@V?$allocator@D@2@@std@@V?$allocator@V?$basic_string@DU?$char_traits@D@std@@V?$allocator@D@2@@std@@@2@@std@@QAE@XZ 00413800 f i HelperFunctions.obj
 0001:00012830       ??A?$basic_string@DU?$char_traits@D@std@@V?$allocator@D@2@@std@@QAEAADI@Z 00413830 f i HelperFunctions.obj
 0001:00012860       ??Y?$basic_string@DU?$char_traits@D@std@@V?$allocator@D@2@@std@@QAEAAV01@D@Z 00413860 f i HelperFunctions.obj
 0001:00012890       ??_G?$basic_string@DU?$char_traits@D@std@@V?$allocator@D@2@@std@@QAEPAXI@Z 00413890 f i HelperFunctions.obj
 0001:000128e0       ?_Assign_rv@?$vector@V?$basic_string@DU?$char_traits@D@std@@V?$allocator@D@2@@std@@V?$allocator@V?$basic_string@DU?$char_traits@D@std@@V?$allocator@D@2@@std@@@2@@std@@QAEX$$QAV12@U?$integral_constant@_N$00@2@@Z 004138e0 f i HelperFunctions.obj
 0001:00012960       ?_Chassign@?$basic_string@DU?$char_traits@D@std@@V?$allocator@D@2@@std@@QAEXIID@Z 00413960 f i HelperFunctions.obj
 0001:000129d0       ?_Destroy@?$vector@V?$basic_string@DU?$char_traits@D@std@@V?$allocator@D@2@@std@@V?$allocator@V?$basic_string@DU?$char_traits@D@std@@V?$allocator@D@2@@std@@@2@@std@@IAEXPAV?$basic_string@DU?$char_traits@D@std@@V?$allocator@D@2@@2@0@Z 004139d0 f i HelperFunctions.obj
 0001:00012a20       ?_Getal@?$_Vector_alloc@$0A@U?$_Vec_base_types@V?$basic_string@DU?$char_traits@D@std@@V?$allocator@D@2@@std@@V?$allocator@V?$basic_string@DU?$char_traits@D@std@@V?$allocator@D@2@@std@@@2@@std@@@std@@QBE?AU?$_Wrap_alloc@V?$allocator@V?$basic_string@DU?$char_traits@D@std@@V?$allocator@D@2@@std@@@std@@@2@XZ 00413a20 f i HelperFunctions.obj
 0001:00012a50       ?_Grow_to@?$vector@V?$basic_string@DU?$char_traits@D@std@@V?$allocator@D@2@@std@@V?$allocator@V?$basic_string@DU?$char_traits@D@std@@V?$allocator@D@2@@std@@@2@@std@@IBEII@Z 00413a50 f i HelperFunctions.obj
 0001:00012ad0       ?_Inside@?$vector@V?$basic_string@DU?$char_traits@D@std@@V?$allocator@D@2@@std@@V?$allocator@V?$basic_string@DU?$char_traits@D@std@@V?$allocator@D@2@@std@@@2@@std@@IBE_NPBV?$basic_string@DU?$char_traits@D@std@@V?$allocator@D@2@@2@@Z 00413ad0 f i HelperFunctions.obj
 0001:00012b20       ?_Orphan_range@?$vector@V?$basic_string@DU?$char_traits@D@std@@V?$allocator@D@2@@std@@V?$allocator@V?$basic_string@DU?$char_traits@D@std@@V?$allocator@D@2@@std@@@2@@std@@IBEXPAV?$basic_string@DU?$char_traits@D@std@@V?$allocator@D@2@@2@0@Z 00413b20 f i HelperFunctions.obj
 0001:00012b40       ?_Reallocate@?$vector@V?$basic_string@DU?$char_traits@D@std@@V?$allocator@D@2@@std@@V?$allocator@V?$basic_string@DU?$char_traits@D@std@@V?$allocator@D@2@@std@@@2@@std@@IAEXI@Z 00413b40 f i HelperFunctions.obj
 0001:00012cd0       ?_Reserve@?$vector@V?$basic_string@DU?$char_traits@D@std@@V?$allocator@D@2@@std@@V?$allocator@V?$basic_string@DU?$char_traits@D@std@@V?$allocator@D@2@@std@@@2@@std@@IAEXI@Z 00413cd0 f i HelperFunctions.obj
 0001:00012d50       ?_Tidy@?$vector@V?$basic_string@DU?$char_traits@D@std@@V?$allocator@D@2@@std@@V?$allocator@V?$basic_string@DU?$char_traits@D@std@@V?$allocator@D@2@@std@@@2@@std@@IAEXXZ 00413d50 f i HelperFunctions.obj
 0001:00012e00       ?_Unused_capacity@?$vector@V?$basic_string@DU?$char_traits@D@std@@V?$allocator@D@2@@std@@V?$allocator@V?$basic_string@DU?$char_traits@D@std@@V?$allocator@D@2@@std@@@2@@std@@QBEIXZ 00413e00 f i HelperFunctions.obj
 0001:00012e30       ?_Xlen@?$vector@V?$basic_string@DU?$char_traits@D@std@@V?$allocator@D@2@@std@@V?$allocator@V?$basic_string@DU?$char_traits@D@std@@V?$allocator@D@2@@std@@@2@@std@@IBEXXZ 00413e30 f i HelperFunctions.obj
 0001:00012e60       ?abs@@YANN@Z               00413e60 f i HelperFunctions.obj
 0001:00012e90       ?allocate@?$_Wrap_alloc@V?$allocator@V?$basic_string@DU?$char_traits@D@std@@V?$allocator@D@2@@std@@@std@@@std@@QAEPAV?$basic_string@DU?$char_traits@D@std@@V?$allocator@D@2@@2@I@Z 00413e90 f i HelperFunctions.obj
 0001:00012ec0       ?allocate@?$allocator@V?$basic_string@DU?$char_traits@D@std@@V?$allocator@D@2@@std@@@std@@QAEPAV?$basic_string@DU?$char_traits@D@std@@V?$allocator@D@2@@2@I@Z 00413ec0 f i HelperFunctions.obj
 0001:00012ef0       ?append@?$basic_string@DU?$char_traits@D@std@@V?$allocator@D@2@@std@@QAEAAV12@ID@Z 00413ef0 f i HelperFunctions.obj
 0001:00012f90       ?assign@?$char_traits@D@std@@SAPADPADID@Z 00413f90 f i HelperFunctions.obj
 0001:00012fc0       ?capacity@?$vector@V?$basic_string@DU?$char_traits@D@std@@V?$allocator@D@2@@std@@V?$allocator@V?$basic_string@DU?$char_traits@D@std@@V?$allocator@D@2@@std@@@2@@std@@QBEIXZ 00413fc0 f i HelperFunctions.obj
 0001:00012ff0       ?clear@?$basic_string@DU?$char_traits@D@std@@V?$allocator@D@2@@std@@QAEXXZ 00413ff0 f i HelperFunctions.obj
 0001:00013020       ?construct@?$allocator@V?$basic_string@DU?$char_traits@D@std@@V?$allocator@D@2@@std@@@std@@QAEXPAV?$basic_string@DU?$char_traits@D@std@@V?$allocator@D@2@@2@ABV32@@Z 00414020 f i HelperFunctions.obj
 0001:000130d0       ?deallocate@?$_Wrap_alloc@V?$allocator@V?$basic_string@DU?$char_traits@D@std@@V?$allocator@D@2@@std@@@std@@@std@@QAEXPAV?$basic_string@DU?$char_traits@D@std@@V?$allocator@D@2@@2@I@Z 004140d0 f i HelperFunctions.obj
 0001:00013100       ?deallocate@?$allocator@V?$basic_string@DU?$char_traits@D@std@@V?$allocator@D@2@@std@@@std@@QAEXPAV?$basic_string@DU?$char_traits@D@std@@V?$allocator@D@2@@2@I@Z 00414100 f i HelperFunctions.obj
 0001:00013130       ?getAngle@@YANNNNN@Z       00414130 f   HelperFunctions.obj
 0001:000131a0       ?getDistanceBetweenPoints@@YANNNNN@Z 004141a0 f   HelperFunctions.obj
 0001:00013250       ?isPointInsidePolygon@@YA_NHQAN0NN@Z 00414250 f   HelperFunctions.obj
 0001:00013510       ?isPolygonInsidePolygon@@YA_NHQAN0H00@Z 00414510 f   HelperFunctions.obj
 0001:000135a0       ?max_size@?$_Wrap_alloc@V?$allocator@V?$basic_string@DU?$char_traits@D@std@@V?$allocator@D@2@@std@@@std@@@std@@QBEIXZ 004145a0 f i HelperFunctions.obj
 0001:000135d0       ?max_size@?$allocator@V?$basic_string@DU?$char_traits@D@std@@V?$allocator@D@2@@std@@@std@@QBEIXZ 004145d0 f i HelperFunctions.obj
 0001:000135f0       ?max_size@?$allocator_traits@V?$allocator@V?$basic_string@DU?$char_traits@D@std@@V?$allocator@D@2@@std@@@std@@@std@@SAIABV?$allocator@V?$basic_string@DU?$char_traits@D@std@@V?$allocator@D@2@@std@@@2@@Z 004145f0 f i HelperFunctions.obj
 0001:00013610       ?max_size@?$vector@V?$basic_string@DU?$char_traits@D@std@@V?$allocator@D@2@@std@@V?$allocator@V?$basic_string@DU?$char_traits@D@std@@V?$allocator@D@2@@std@@@2@@std@@QBEIXZ 00414610 f i HelperFunctions.obj
 0001:00013640       ?pow@@YANNH@Z              00414640 f i HelperFunctions.obj
 0001:00013680       ?push_back@?$vector@V?$basic_string@DU?$char_traits@D@std@@V?$allocator@D@2@@std@@V?$allocator@V?$basic_string@DU?$char_traits@D@std@@V?$allocator@D@2@@std@@@2@@std@@QAEXABV?$basic_string@DU?$char_traits@D@std@@V?$allocator@D@2@@2@@Z 00414680 f i HelperFunctions.obj
 0001:000137d0       ?rotatePolygon@@YAXHQAN0NNN@Z 004147d0 f   HelperFunctions.obj
 0001:000138f0       ?select_on_container_copy_construction@?$_Wrap_alloc@V?$allocator@D@std@@@std@@QBE?AU12@XZ 004148f0 f i HelperFunctions.obj
 0001:00013930       ?select_on_container_copy_construction@?$allocator@D@std@@QBE?AV12@XZ 00414930 f i HelperFunctions.obj
 0001:00013960       ?select_on_container_copy_construction@?$allocator_traits@V?$allocator@D@std@@@std@@SA?AV?$allocator@D@2@ABV32@@Z 00414960 f i HelperFunctions.obj
 0001:00013990       ?size@?$vector@V?$basic_string@DU?$char_traits@D@std@@V?$allocator@D@2@@std@@V?$allocator@V?$basic_string@DU?$char_traits@D@std@@V?$allocator@D@2@@std@@@2@@std@@QBEIXZ 00414990 f i HelperFunctions.obj
 0001:000139c0       ?splitString@@YA?AV?$vector@V?$basic_string@DU?$char_traits@D@std@@V?$allocator@D@2@@std@@V?$allocator@V?$basic_string@DU?$char_traits@D@std@@V?$allocator@D@2@@std@@@2@@std@@V?$basic_string@DU?$char_traits@D@std@@V?$allocator@D@2@@2@D@Z 004149c0 f   HelperFunctions.obj
 0001:00013b50       ??0HelpState@@QAE@PAVPsyja2Engine@@@Z 00414b50 f   HelpState.obj
 0001:00013b90       ??1HelpState@@QAE@XZ       00414b90 f   HelpState.obj
 0001:00013bc0       ?DrawStrings@HelpState@@UAEXXZ 00414bc0 f   HelpState.obj
 0001:00013c70       ?DrawableObjectsChanged@BaseEngine@@QAEXXZ 00414c70 f i HelpState.obj
 0001:00013ca0       ?GetBackground@BaseEngine@@QAEPAUSDL_Surface@@XZ 00414ca0 f i HelpState.obj
 0001:00013cc0       ?GetHelp@SpriteManager@@QAEPAVImageData@@XZ 00414cc0 f i HelpState.obj
 0001:00013ce0       ?InitialiseObjects@HelpState@@UAEHXZ 00414ce0 f   HelpState.obj
 0001:00013d30       ?KeyDown@HelpState@@UAEXH@Z 00414d30 f   HelpState.obj
 0001:00013e00       ?SetupBackgroundBuffer@HelpState@@UAEXXZ 00414e00 f   HelpState.obj
 0001:00013e70       _SDL_main                  00414e70 f   mainfunction.obj
 0001:00013f90       ??$GetAngle@H@@YANHHHH@Z   00414f90 f i BaseEngine.obj
 0001:00014040       ??$GetAngle@N@@YANNNNN@Z   00415040 f i BaseEngine.obj
 0001:00014100       ??$Swap@H@@YAXAAH0@Z       00415100 f i BaseEngine.obj
 0001:00014140       ??$Swap@N@@YAXAAN0@Z       00415140 f i BaseEngine.obj
 0001:00014190       ??$_Allocate@PAVDisplayableObject@@@std@@YAPAPAVDisplayableObject@@IPAPAV1@@Z 00415190 f i BaseEngine.obj
 0001:000141f0       ??$_Copy_backward@PAPAVDisplayableObject@@PAPAV1@@std@@YAPAPAVDisplayableObject@@PAPAV1@00@Z 004151f0 f i BaseEngine.obj
 0001:00014240       ??$_Copy_backward@PAPAVDisplayableObject@@PAPAV1@@std@@YAPAPAVDisplayableObject@@PAPAV1@00U_Scalar_ptr_iterator_tag@0@@Z 00415240 f i BaseEngine.obj
 0001:000142a0       ??$_Destroy_range@U?$_Wrap_alloc@V?$allocator@PAVDisplayableObject@@@std@@@std@@@std@@YAXPAPAVDisplayableObject@@0AAU?$_Wrap_alloc@V?$allocator@PAVDisplayableObject@@@std@@@0@@Z 004152a0 f i BaseEngine.obj
 0001:000142f0       ??$_Destroy_range@U?$_Wrap_alloc@V?$allocator@PAVDisplayableObject@@@std@@@std@@@std@@YAXPAPAVDisplayableObject@@0AAU?$_Wrap_alloc@V?$allocator@PAVDisplayableObject@@@std@@@0@U_Scalar_ptr_iterator_tag@0@@Z 004152f0 f i BaseEngine.obj
 0001:00014310       ??$_Fill@PAPAVDisplayableObject@@PAV1@@std@@YAXPAPAVDisplayableObject@@0ABQAV1@@Z 00415310 f i BaseEngine.obj
 0001:00014350       ??$_Fill_n@PAPAVDisplayableObject@@IPAV1@@std@@YAPAPAVDisplayableObject@@PAPAV1@IABQAV1@@Z 00415350 f i BaseEngine.obj
 0001:000143a0       ??$_Find@PAPAVDisplayableObject@@PAV1@@std@@YAPAPAVDisplayableObject@@PAPAV1@0ABQAV1@@Z 004153a0 f i BaseEngine.obj
 0001:000143e0       ??$_Find@PAPAVDisplayableObject@@PAV1@@std@@YAPAPAVDisplayableObject@@PAPAV1@0ABQAV1@U?$integral_constant@_N$0A@@0@@Z 004153e0 f i BaseEngine.obj
 0001:00014430       ??$_Move@AAPAVDisplayableObject@@@std@@YA$$QAPAVDisplayableObject@@AAPAV1@@Z 00415430 f i BaseEngine.obj
 0001:00014450       ??$_Move@PAPAVDisplayableObject@@PAPAV1@@std@@YAPAPAVDisplayableObject@@PAPAV1@00@Z 00415450 f i BaseEngine.obj
 0001:000144a0       ??$_Move@PAPAVDisplayableObject@@PAPAV1@@std@@YAPAPAVDisplayableObject@@PAPAV1@00U_Scalar_ptr_iterator_tag@0@@Z 004154a0 f i BaseEngine.obj
 0001:000144f0       ??$_Ptr_cat@PAVDisplayableObject@@PAV1@@std@@YA?AU_Scalar_ptr_iterator_tag@0@PAPAVDisplayableObject@@0@Z 004154f0 f i BaseEngine.obj
 0001:00014510       ??$_Rechecked@PAPAVDisplayableObject@@PAPAV1@@std@@YAAAPAPAVDisplayableObject@@AAPAPAV1@PAPAV1@@Z 00415510 f i BaseEngine.obj
 0001:00014540       ??$_Rechecked@V?$_Vector_val@U?$_Simple_types@PAVDisplayableObject@@@std@@@std@@@std@@YAAAV?$_Vector_iterator@V?$_Vector_val@U?$_Simple_types@PAVDisplayableObject@@@std@@@std@@@0@AAV10@PAPAVDisplayableObject@@@Z 00415540 f i BaseEngine.obj
 0001:00014570       ??$_Remove@PAPAVDisplayableObject@@PAV1@@std@@YAPAPAVDisplayableObject@@PAPAV1@0ABQAV1@@Z 00415570 f i BaseEngine.obj
 0001:000145f0       ??$_Umove@PAPAVDisplayableObject@@@?$vector@PAVDisplayableObject@@V?$allocator@PAVDisplayableObject@@@std@@@std@@IAEPAPAVDisplayableObject@@PAPAV2@00@Z 004155f0 f i BaseEngine.obj
 0001:00014640       ??$_Unchecked@PAPAVDisplayableObject@@@std@@YAPAPAVDisplayableObject@@PAPAV1@@Z 00415640 f i BaseEngine.obj
 0001:00014660       ??$_Unchecked@V?$_Vector_val@U?$_Simple_types@PAVDisplayableObject@@@std@@@std@@@std@@YAPAPAVDisplayableObject@@V?$_Vector_iterator@V?$_Vector_val@U?$_Simple_types@PAVDisplayableObject@@@std@@@std@@@0@@Z 00415660 f i BaseEngine.obj
 0001:00014680       ??$_Uninit_fill_n@PAVDisplayableObject@@IPAV1@PAV1@@std@@YAXPAPAVDisplayableObject@@IPBQAV1@AAU?$_Wrap_alloc@V?$allocator@PAVDisplayableObject@@@std@@@0@0U_Scalar_ptr_iterator_tag@0@@Z 00415680 f i BaseEngine.obj
 0001:000146b0       ??$_Uninit_move@PAPAVDisplayableObject@@PAPAV1@U?$_Wrap_alloc@V?$allocator@PAVDisplayableObject@@@std@@@std@@@std@@YAPAPAVDisplayableObject@@PAPAV1@00AAU?$_Wrap_alloc@V?$allocator@PAVDisplayableObject@@@std@@@0@@Z 004156b0 f i BaseEngine.obj
 0001:00014710       ??$_Uninit_move@PAVDisplayableObject@@PAV1@PAV1@@std@@YAPAPAVDisplayableObject@@PAPAV1@00AAU?$_Wrap_alloc@V?$allocator@PAVDisplayableObject@@@std@@@0@0U_Scalar_ptr_iterator_tag@0@@Z 00415710 f i BaseEngine.obj
 0001:00014760       ??$_Uninitialized_fill_n@PAPAVDisplayableObject@@IPAV1@U?$_Wrap_alloc@V?$allocator@PAVDisplayableObject@@@std@@@std@@@std@@YAXPAPAVDisplayableObject@@IPBQAV1@AAU?$_Wrap_alloc@V?$allocator@PAVDisplayableObject@@@std@@@0@@Z 00415760 f i BaseEngine.obj
 0001:000147c0       ??$_Uninitialized_move@PAPAVDisplayableObject@@PAPAV1@U?$_Wrap_alloc@V?$allocator@PAVDisplayableObject@@@std@@@std@@@std@@YAPAPAVDisplayableObject@@PAPAV1@00AAU?$_Wrap_alloc@V?$allocator@PAVDisplayableObject@@@std@@@0@@Z 004157c0 f i BaseEngine.obj
 0001:00014830       ??$_Val_type@PAPAVDisplayableObject@@@std@@YAPAPAVDisplayableObject@@PAPAV1@@Z 00415830 f i BaseEngine.obj
 0001:00014850       ??$addressof@PAVDisplayableObject@@@std@@YAPAPAVDisplayableObject@@AAPAV1@@Z 00415850 f i BaseEngine.obj
 0001:00014870       ??$addressof@QAVDisplayableObject@@@std@@YAPBQAVDisplayableObject@@ABQAV1@@Z 00415870 f i BaseEngine.obj
 0001:00014890       ??$construct@PAVDisplayableObject@@AAPAV1@@?$_Wrap_alloc@V?$allocator@PAVDisplayableObject@@@std@@@std@@QAEXPAPAVDisplayableObject@@AAPAV2@@Z 00415890 f i BaseEngine.obj
 0001:000148d0       ??$construct@PAVDisplayableObject@@AAPAV1@@?$allocator@PAVDisplayableObject@@@std@@QAEXPAPAVDisplayableObject@@AAPAV2@@Z 004158d0 f i BaseEngine.obj
 0001:00014980       ??$construct@PAVDisplayableObject@@AAPAV1@@?$allocator_traits@V?$allocator@PAVDisplayableObject@@@std@@@std@@SAXAAV?$allocator@PAVDisplayableObject@@@1@PAPAVDisplayableObject@@AAPAV3@@Z 00415980 f i BaseEngine.obj
 0001:000149c0       ??$construct@PAVDisplayableObject@@ABQAV1@@?$_Wrap_alloc@V?$allocator@PAVDisplayableObject@@@std@@@std@@QAEXPAPAVDisplayableObject@@ABQAV2@@Z 004159c0 f i BaseEngine.obj
 0001:00014a00       ??$construct@PAVDisplayableObject@@ABQAV1@@?$allocator_traits@V?$allocator@PAVDisplayableObject@@@std@@@std@@SAXAAV?$allocator@PAVDisplayableObject@@@1@PAPAVDisplayableObject@@ABQAV3@@Z 00415a00 f i BaseEngine.obj
 0001:00014a40       ??$fill@PAPAVDisplayableObject@@PAV1@@std@@YAXPAPAVDisplayableObject@@0ABQAV1@@Z 00415a40 f i BaseEngine.obj
 0001:00014a90       ??$find@V?$_Vector_iterator@V?$_Vector_val@U?$_Simple_types@PAVDisplayableObject@@@std@@@std@@@std@@PAVDisplayableObject@@@std@@YA?AV?$_Vector_iterator@V?$_Vector_val@U?$_Simple_types@PAVDisplayableObject@@@std@@@std@@@0@V10@0ABQAVDisplayableObject@@@Z 00415a90 f i BaseEngine.obj
 0001:00014af0       ??$forward@AAPAVDisplayableObject@@@std@@YAAAPAVDisplayableObject@@AAPAV1@@Z 00415af0 f i BaseEngine.obj
 0001:00014b10       ??$forward@ABQAVDisplayableObject@@@std@@YAABQAVDisplayableObject@@ABQAV1@@Z 00415b10 f i BaseEngine.obj
 0001:00014b30       ??$remove@V?$_Vector_iterator@V?$_Vector_val@U?$_Simple_types@PAVDisplayableObject@@@std@@@std@@@std@@PAVDisplayableObject@@@std@@YA?AV?$_Vector_iterator@V?$_Vector_val@U?$_Simple_types@PAVDisplayableObject@@@std@@@std@@@0@V10@0ABQAVDisplayableObject@@@Z 00415b30 f i BaseEngine.obj
 0001:00014be0       ??0?$_Vector_alloc@$0A@U?$_Vec_base_types@PAVDisplayableObject@@V?$allocator@PAVDisplayableObject@@@std@@@std@@@std@@QAE@ABV?$allocator@PAVDisplayableObject@@@1@@Z 00415be0 f i BaseEngine.obj
 0001:00014c10       ??0?$_Vector_const_iterator@V?$_Vector_val@U?$_Simple_types@PAVDisplayableObject@@@std@@@std@@@std@@QAE@PAPAVDisplayableObject@@PBU_Container_base0@1@@Z 00415c10 f i BaseEngine.obj
 0001:00014c50       ??0?$_Vector_iterator@V?$_Vector_val@U?$_Simple_types@PAVDisplayableObject@@@std@@@std@@@std@@QAE@PAPAVDisplayableObject@@PBU_Container_base0@1@@Z 00415c50 f i BaseEngine.obj
 0001:00014c90       ??0?$_Vector_val@U?$_Simple_types@PAVDisplayableObject@@@std@@@std@@QAE@XZ 00415c90 f i BaseEngine.obj
 0001:00014cd0       ??0?$_Wrap_alloc@V?$allocator@PAVDisplayableObject@@@std@@@std@@QAE@XZ 00415cd0 f i BaseEngine.obj
 0001:00014d00       ??0?$allocator@PAVDisplayableObject@@@std@@QAE@XZ 00415d00 f i BaseEngine.obj
 0001:00014d20       ??0?$vector@PAVDisplayableObject@@V?$allocator@PAVDisplayableObject@@@std@@@std@@QAE@XZ 00415d20 f i BaseEngine.obj
 0001:00014d50       ??0BaseEngine@@QAE@H@Z     00415d50 f   BaseEngine.obj
 0001:00014e60       ??1?$vector@PAVDisplayableObject@@V?$allocator@PAVDisplayableObject@@@std@@@std@@QAE@XZ 00415e60 f i BaseEngine.obj
 0001:00014e90       ??1BaseEngine@@UAE@XZ      00415e90 f   BaseEngine.obj
 0001:00014f10       ??8?$_Vector_const_iterator@V?$_Vector_val@U?$_Simple_types@PAVDisplayableObject@@@std@@@std@@@std@@QBE_NABV01@@Z 00415f10 f i BaseEngine.obj
 0001:00014f60       ??9?$_Vector_const_iterator@V?$_Vector_val@U?$_Simple_types@PAVDisplayableObject@@@std@@@std@@@std@@QBE_NABV01@@Z 00415f60 f i BaseEngine.obj
 0001:00014fb0       ??D?$_Vector_const_iterator@V?$_Vector_val@U?$_Simple_types@PAVDisplayableObject@@@std@@@std@@@std@@QBEABQAVDisplayableObject@@XZ 00415fb0 f i BaseEngine.obj
 0001:00014fd0       ??D?$_Vector_iterator@V?$_Vector_val@U?$_Simple_types@PAVDisplayableObject@@@std@@@std@@@std@@QBEAAPAVDisplayableObject@@XZ 00415fd0 f i BaseEngine.obj
 0001:00015000       ??E?$_Vector_const_iterator@V?$_Vector_val@U?$_Simple_types@PAVDisplayableObject@@@std@@@std@@@std@@QAEAAV01@XZ 00416000 f i BaseEngine.obj
 0001:00015030       ??E?$_Vector_iterator@V?$_Vector_val@U?$_Simple_types@PAVDisplayableObject@@@std@@@std@@@std@@QAE?AV01@H@Z 00416030 f i BaseEngine.obj
 0001:00015070       ??E?$_Vector_iterator@V?$_Vector_val@U?$_Simple_types@PAVDisplayableObject@@@std@@@std@@@std@@QAEAAV01@XZ 00416070 f i BaseEngine.obj
 0001:000150a0       ??H?$_Vector_iterator@V?$_Vector_val@U?$_Simple_types@PAVDisplayableObject@@@std@@@std@@@std@@QBE?AV01@H@Z 004160a0 f i BaseEngine.obj
 0001:000150e0       ??M?$_Vector_const_iterator@V?$_Vector_val@U?$_Simple_types@PAVDisplayableObject@@@std@@@std@@@std@@QBE_NABV01@@Z 004160e0 f i BaseEngine.obj
 0001:00015130       ??N?$_Vector_const_iterator@V?$_Vector_val@U?$_Simple_types@PAVDisplayableObject@@@std@@@std@@@std@@QBE_NABV01@@Z 00416130 f i BaseEngine.obj
 0001:00015180       ??Y?$_Vector_const_iterator@V?$_Vector_val@U?$_Simple_types@PAVDisplayableObject@@@std@@@std@@@std@@QAEAAV01@H@Z 00416180 f i BaseEngine.obj
 0001:000151c0       ??Y?$_Vector_iterator@V?$_Vector_val@U?$_Simple_types@PAVDisplayableObject@@@std@@@std@@@std@@QAEAAV01@H@Z 004161c0 f i BaseEngine.obj
 0001:000151f0       ??_G?$vector@PAVDisplayableObject@@V?$allocator@PAVDisplayableObject@@@std@@@std@@QAEPAXI@Z 004161f0 f i BaseEngine.obj
 0001:00015240       ??_GBaseEngine@@UAEPAXI@Z  00416240 f i BaseEngine.obj
 0001:00015240       ??_EBaseEngine@@UAEPAXI@Z  00416240 f i BaseEngine.obj
 0001:00015290       ?ApplyToAllObjects@BaseEngine@@QAEXP6AXPAVDisplayableObject@@@Z@Z 00416290 f   BaseEngine.obj
 0001:00015300       ?CleanUp@BaseEngine@@UAEXXZ 00416300 f   BaseEngine.obj
 0001:00015320       ?CopyAllBackgroundBuffer@BaseEngine@@QAEXXZ 00416320 f   BaseEngine.obj
 0001:00015380       ?CopyBackgroundPixels@BaseEngine@@QAEXHHHH@Z 00416380 f   BaseEngine.obj
 0001:00015490       ?CreateObjectArray@BaseEngine@@QAEXH@Z 00416490 f   BaseEngine.obj
 0001:00015550       ?Deinitialise@BaseEngine@@QAEXXZ 00416550 f   BaseEngine.obj
 0001:000155a0       ?DestroyOldObjects@BaseEngine@@UAEXXZ 004165a0 f   BaseEngine.obj
 0001:00015680       ?DrawHollowOval@BaseEngine@@QAEXHHHHHHHHIPAUSDL_Surface@@@Z 00416680 f   BaseEngine.obj
 0001:00015980       ?DrawLine@BaseEngine@@QAEXNNNNIPAUSDL_Surface@@@Z 00416980 f   BaseEngine.obj
 0001:00015b30       ?DrawObjects@BaseEngine@@UAEXXZ 00416b30 f   BaseEngine.obj
 0001:00015bd0       ?DrawOval@BaseEngine@@QAEXHHHHIPAUSDL_Surface@@@Z 00416bd0 f   BaseEngine.obj
 0001:00015da0       ?DrawPolygon@BaseEngine@@QAEXHPAN0IPAUSDL_Surface@@@Z 00416da0 f   BaseEngine.obj
 0001:00016760       ?DrawRectangle@BaseEngine@@QAEXHHHHIPAUSDL_Surface@@@Z 00417760 f   BaseEngine.obj
 0001:00016830       ?DrawShortenedArrow@BaseEngine@@QAEXHHHHHHIHHPAUSDL_Surface@@@Z 00417830 f   BaseEngine.obj
 0001:00016ea0       ?DrawShortenedLine@BaseEngine@@QAEXHHHHHHIHPAUSDL_Surface@@@Z 00417ea0 f   BaseEngine.obj
 0001:000173b0       ?DrawString@BaseEngine@@QAEXHHPBDIPAVFont@@PAUSDL_Surface@@@Z 004183b0 f   BaseEngine.obj
 0001:00017530       ?DrawStrings@BaseEngine@@UAEXXZ 00418530 f   BaseEngine.obj
 0001:00017550       ?DrawStringsOnTop@BaseEngine@@UAEXXZ 00418550 f   BaseEngine.obj
 0001:00017570       ?DrawStringsUnderneath@BaseEngine@@UAEXXZ 00418570 f   BaseEngine.obj
 0001:00017590       ?DrawThickLine@BaseEngine@@QAEXNNNNIHPAUSDL_Surface@@@Z 00418590 f   BaseEngine.obj
 0001:00017ac0       ?DrawTriangle@BaseEngine@@QAEXNNNNNNIPAUSDL_Surface@@@Z 00418ac0 f   BaseEngine.obj
 0001:00017de0       ?DrawVerticalSidedRegion@BaseEngine@@QAEXNNNNNNIPAUSDL_Surface@@@Z 00418de0 f   BaseEngine.obj
 0001:00018170       ?FillBackground@BaseEngine@@UAEXI@Z 00419170 f   BaseEngine.obj
 0001:000181f0       ?GameAction@BaseEngine@@UAEXXZ 004191f0 f   BaseEngine.obj
 0001:00018250       ?GameInit@BaseEngine@@UAEHXZ 00419250 f   BaseEngine.obj
 0001:00018290       ?GameRender@BaseEngine@@UAEXXZ 00419290 f   BaseEngine.obj
 0001:00018520       ?GetColour@BaseEngine@@QBEIH@Z 00419520 f   BaseEngine.obj
 0001:000187f0       ?GetDisplayableObject@BaseEngine@@QAEPAVDisplayableObject@@H@Z 004197f0 f   BaseEngine.obj
 0001:00018850       ?GetFont@Font@@QAEPAU_TTF_Font@@XZ 00419850 f i BaseEngine.obj
 0001:00018870       ?GetIntsPerScreenRow@BaseEngine@@IBEHPAUSDL_Surface@@@Z 00419870 f i BaseEngine.obj
 0001:000188a0       ?GetModifiedTime@BaseEngine@@UBEHXZ 004198a0 f i BaseEngine.obj
 0001:000188d0       ?GetTime@BaseEngine@@QBEHXZ 004198d0 f i BaseEngine.obj
 0001:000188f0       ?Initialise@BaseEngine@@QAEHPBDHH0H@Z 004198f0 f   BaseEngine.obj
 0001:00018b30       ?InitialiseObjects@BaseEngine@@UAEHXZ 00419b30 f   BaseEngine.obj
 0001:00018b60       ?IsKeyPressed@BaseEngine@@QBE_NH@Z 00419b60 f   BaseEngine.obj
 0001:00018ba0       ?KeyDown@BaseEngine@@UAEXH@Z 00419ba0 f   BaseEngine.obj
 0001:00018bc0       ?KeyUp@BaseEngine@@UAEXH@Z 00419bc0 f   BaseEngine.obj
 0001:00018be0       ?MainLoop@BaseEngine@@QAEHXZ 00419be0 f   BaseEngine.obj
 0001:00018e30       ?MouseDown@BaseEngine@@UAEXHHH@Z 00419e30 f   BaseEngine.obj
 0001:00018e50       ?MouseMoved@BaseEngine@@UAEXHH@Z 00419e50 f   BaseEngine.obj
 0001:00018e70       ?MouseUp@BaseEngine@@UAEXHHH@Z 00419e70 f   BaseEngine.obj
 0001:00018e90       ?NotifyAllObjects@BaseEngine@@QAEXH@Z 00419e90 f   BaseEngine.obj
 0001:00018f10       ?NotifyAllObjectsGetCountNonZero@BaseEngine@@QAEHH@Z 00419f10 f   BaseEngine.obj
 0001:00018fb0       ?NotifyAllObjectsGetMax@BaseEngine@@QAEHH@Z 00419fb0 f   BaseEngine.obj
 0001:00019060       ?NotifyAllObjectsGetMin@BaseEngine@@QAEHH@Z 0041a060 f   BaseEngine.obj
 0001:00019110       ?NotifyAllObjectsGetSum@BaseEngine@@QAEHH@Z 0041a110 f   BaseEngine.obj
 0001:000191b0       ?RemoveObjectFromArray@BaseEngine@@QAEXPAVDisplayableObject@@@Z 0041a1b0 f   BaseEngine.obj
 0001:00019280       ?SafeSetPixel@BaseEngine@@QAEXHHIPAUSDL_Surface@@@Z 0041a280 f i BaseEngine.obj
 0001:00019310       ?SetupBackgroundBuffer@BaseEngine@@UAEXXZ 0041a310 f   BaseEngine.obj
 0001:00019340       ?StoreObjectInArray@BaseEngine@@QAEXHPAVDisplayableObject@@@Z 0041a340 f   BaseEngine.obj
 0001:00019480       ?StoreObjectInArray@BaseEngine@@QAEXPAVDisplayableObject@@@Z 0041a480 f   BaseEngine.obj
 0001:000194c0       ?SymbolToKeycode@BaseEngine@@SAHH@Z 0041a4c0 f i BaseEngine.obj
 0001:00019840       ?UnDrawStrings@BaseEngine@@UAEXXZ 0041a840 f   BaseEngine.obj
 0001:00019860       ?UndrawObjects@BaseEngine@@UAEXXZ 0041a860 f   BaseEngine.obj
 0001:00019900       ?UpdateAllObjects@BaseEngine@@UAEXH@Z 0041a900 f   BaseEngine.obj
 0001:000199a0       ?_Compat@?$_Vector_const_iterator@V?$_Vector_val@U?$_Simple_types@PAVDisplayableObject@@@std@@@std@@@std@@QBEXABV12@@Z 0041a9a0 f i BaseEngine.obj
 0001:000199c0       ?_Destroy@?$vector@PAVDisplayableObject@@V?$allocator@PAVDisplayableObject@@@std@@@std@@IAEXPAPAVDisplayableObject@@0@Z 0041a9c0 f i BaseEngine.obj
 0001:00019a10       ?_Getal@?$_Vector_alloc@$0A@U?$_Vec_base_types@PAVDisplayableObject@@V?$allocator@PAVDisplayableObject@@@std@@@std@@@std@@QBE?AU?$_Wrap_alloc@V?$allocator@PAVDisplayableObject@@@std@@@2@XZ 0041aa10 f i BaseEngine.obj
 0001:00019a40       ?_Grow_to@?$vector@PAVDisplayableObject@@V?$allocator@PAVDisplayableObject@@@std@@@std@@IBEII@Z 0041aa40 f i BaseEngine.obj
 0001:00019ac0       ?_Insert_n@?$vector@PAVDisplayableObject@@V?$allocator@PAVDisplayableObject@@@std@@@std@@IAE?AV?$_Vector_iterator@V?$_Vector_val@U?$_Simple_types@PAVDisplayableObject@@@std@@@std@@@2@V?$_Vector_const_iterator@V?$_Vector_val@U?$_Simple_types@PAVDisplayableObject@@@std@@@std@@@2@IABQAVDisplayableObject@@@Z 0041aac0 f i BaseEngine.obj
 0001:00019fa0       ?_Inside@?$vector@PAVDisplayableObject@@V?$allocator@PAVDisplayableObject@@@std@@@std@@IBE_NPBQAVDisplayableObject@@@Z 0041afa0 f i BaseEngine.obj
 0001:00019ff0       ?_Make_iter@?$vector@PAVDisplayableObject@@V?$allocator@PAVDisplayableObject@@@std@@@std@@QBE?AV?$_Vector_iterator@V?$_Vector_val@U?$_Simple_types@PAVDisplayableObject@@@std@@@std@@@2@V?$_Vector_const_iterator@V?$_Vector_val@U?$_Simple_types@PAVDisplayableObject@@@std@@@std@@@2@@Z 0041aff0 f i BaseEngine.obj
 0001:0001a030       ?_Orphan_range@?$vector@PAVDisplayableObject@@V?$allocator@PAVDisplayableObject@@@std@@@std@@IBEXPAPAVDisplayableObject@@0@Z 0041b030 f i BaseEngine.obj
 0001:0001a050       ?_Reallocate@?$vector@PAVDisplayableObject@@V?$allocator@PAVDisplayableObject@@@std@@@std@@IAEXI@Z 0041b050 f i BaseEngine.obj
 0001:0001a1e0       ?_Rechecked@?$_Vector_iterator@V?$_Vector_val@U?$_Simple_types@PAVDisplayableObject@@@std@@@std@@@std@@QAEAAV12@PAPAVDisplayableObject@@@Z 0041b1e0 f i BaseEngine.obj
 0001:0001a210       ?_Reserve@?$vector@PAVDisplayableObject@@V?$allocator@PAVDisplayableObject@@@std@@@std@@IAEXI@Z 0041b210 f i BaseEngine.obj
 0001:0001a290       ?_Tidy@?$vector@PAVDisplayableObject@@V?$allocator@PAVDisplayableObject@@@std@@@std@@IAEXXZ 0041b290 f i BaseEngine.obj
 0001:0001a330       ?_Ufill@?$vector@PAVDisplayableObject@@V?$allocator@PAVDisplayableObject@@@std@@@std@@IAEPAPAVDisplayableObject@@PAPAV3@IPBQAV3@@Z 0041b330 f i BaseEngine.obj
 0001:0001a390       ?_Unchecked@?$_Vector_iterator@V?$_Vector_val@U?$_Simple_types@PAVDisplayableObject@@@std@@@std@@@std@@QBEPAPAVDisplayableObject@@XZ 0041b390 f i BaseEngine.obj
 0001:0001a3b0       ?_Unused_capacity@?$vector@PAVDisplayableObject@@V?$allocator@PAVDisplayableObject@@@std@@@std@@QBEIXZ 0041b3b0 f i BaseEngine.obj
 0001:0001a3e0       ?_Xlen@?$vector@PAVDisplayableObject@@V?$allocator@PAVDisplayableObject@@@std@@@std@@IBEXXZ 0041b3e0 f i BaseEngine.obj
 0001:0001a410       ?_Xran@?$vector@PAVDisplayableObject@@V?$allocator@PAVDisplayableObject@@@std@@@std@@IBEXXZ 0041b410 f i BaseEngine.obj
 0001:0001a440       ?allocate@?$_Wrap_alloc@V?$allocator@PAVDisplayableObject@@@std@@@std@@QAEPAPAVDisplayableObject@@I@Z 0041b440 f i BaseEngine.obj
 0001:0001a470       ?allocate@?$allocator@PAVDisplayableObject@@@std@@QAEPAPAVDisplayableObject@@I@Z 0041b470 f i BaseEngine.obj
 0001:0001a4a0       ?at@?$vector@PAVDisplayableObject@@V?$allocator@PAVDisplayableObject@@@std@@@std@@QAEAAPAVDisplayableObject@@I@Z 0041b4a0 f i BaseEngine.obj
 0001:0001a4f0       ?begin@?$vector@PAVDisplayableObject@@V?$allocator@PAVDisplayableObject@@@std@@@std@@QAE?AV?$_Vector_iterator@V?$_Vector_val@U?$_Simple_types@PAVDisplayableObject@@@std@@@std@@@2@XZ 0041b4f0 f i BaseEngine.obj
 0001:0001a530       ?capacity@?$vector@PAVDisplayableObject@@V?$allocator@PAVDisplayableObject@@@std@@@std@@QBEIXZ 0041b530 f i BaseEngine.obj
 0001:0001a560       ?clear@?$vector@PAVDisplayableObject@@V?$allocator@PAVDisplayableObject@@@std@@@std@@QAEXXZ 0041b560 f i BaseEngine.obj
 0001:0001a5b0       ?construct@?$allocator@PAVDisplayableObject@@@std@@QAEXPAPAVDisplayableObject@@ABQAV3@@Z 0041b5b0 f i BaseEngine.obj
 0001:0001a610       ?deallocate@?$_Wrap_alloc@V?$allocator@PAVDisplayableObject@@@std@@@std@@QAEXPAPAVDisplayableObject@@I@Z 0041b610 f i BaseEngine.obj
 0001:0001a640       ?deallocate@?$allocator@PAVDisplayableObject@@@std@@QAEXPAPAVDisplayableObject@@I@Z 0041b640 f i BaseEngine.obj
 0001:0001a670       ?end@?$vector@PAVDisplayableObject@@V?$allocator@PAVDisplayableObject@@@std@@@std@@QAE?AV?$_Vector_iterator@V?$_Vector_val@U?$_Simple_types@PAVDisplayableObject@@@std@@@std@@@2@XZ 0041b670 f i BaseEngine.obj
 0001:0001a6b0       ?erase@?$vector@PAVDisplayableObject@@V?$allocator@PAVDisplayableObject@@@std@@@std@@QAE?AV?$_Vector_iterator@V?$_Vector_val@U?$_Simple_types@PAVDisplayableObject@@@std@@@std@@@2@V?$_Vector_const_iterator@V?$_Vector_val@U?$_Simple_types@PAVDisplayableObject@@@std@@@std@@@2@0@Z 0041b6b0 f i BaseEngine.obj
 0001:0001a7d0       ?erase@?$vector@PAVDisplayableObject@@V?$allocator@PAVDisplayableObject@@@std@@@std@@QAE?AV?$_Vector_iterator@V?$_Vector_val@U?$_Simple_types@PAVDisplayableObject@@@std@@@std@@@2@V?$_Vector_const_iterator@V?$_Vector_val@U?$_Simple_types@PAVDisplayableObject@@@std@@@std@@@2@@Z 0041b7d0 f i BaseEngine.obj
 0001:0001a860       ?insert@?$vector@PAVDisplayableObject@@V?$allocator@PAVDisplayableObject@@@std@@@std@@QAE?AV?$_Vector_iterator@V?$_Vector_val@U?$_Simple_types@PAVDisplayableObject@@@std@@@std@@@2@V?$_Vector_const_iterator@V?$_Vector_val@U?$_Simple_types@PAVDisplayableObject@@@std@@@std@@@2@ABQAVDisplayableObject@@@Z 0041b860 f i BaseEngine.obj
 0001:0001a8a0       ?max_size@?$_Wrap_alloc@V?$allocator@PAVDisplayableObject@@@std@@@std@@QBEIXZ 0041b8a0 f i BaseEngine.obj
 0001:0001a8d0       ?max_size@?$allocator@PAVDisplayableObject@@@std@@QBEIXZ 0041b8d0 f i BaseEngine.obj
 0001:0001a8f0       ?max_size@?$allocator_traits@V?$allocator@PAVDisplayableObject@@@std@@@std@@SAIABV?$allocator@PAVDisplayableObject@@@2@@Z 0041b8f0 f i BaseEngine.obj
 0001:0001a910       ?max_size@?$vector@PAVDisplayableObject@@V?$allocator@PAVDisplayableObject@@@std@@@std@@QBEIXZ 0041b910 f i BaseEngine.obj
 0001:0001a940       ?push_back@?$vector@PAVDisplayableObject@@V?$allocator@PAVDisplayableObject@@@std@@@std@@QAEXABQAVDisplayableObject@@@Z 0041b940 f i BaseEngine.obj
 0001:0001aa90       ?reserve@?$vector@PAVDisplayableObject@@V?$allocator@PAVDisplayableObject@@@std@@@std@@QAEXI@Z 0041ba90 f i BaseEngine.obj
 0001:0001aaf0       ??0DisplayableObject@@QAE@PAVBaseEngine@@@Z 0041baf0 f   DisplayableObject.obj
 0001:0001ab90       ??1DisplayableObject@@UAE@XZ 0041bb90 f   DisplayableObject.obj
 0001:0001abc0       ??_GDisplayableObject@@UAEPAXI@Z 0041bbc0 f i DisplayableObject.obj
 0001:0001abc0       ??_EDisplayableObject@@UAEPAXI@Z 0041bbc0 f i DisplayableObject.obj
 0001:0001ac10       ?DoUpdate@DisplayableObject@@UAEXH@Z 0041bc10 f   DisplayableObject.obj
 0001:0001ac30       ?Draw@DisplayableObject@@UAEXXZ 0041bc30 f   DisplayableObject.obj
 0001:0001acf0       ?RedrawBackground@DisplayableObject@@UAEXXZ 0041bcf0 f   DisplayableObject.obj
 0001:0001ad50       ?SafeSetScreenPixel@BaseEngine@@QAEXHHI@Z 0041bd50 f i DisplayableObject.obj
 0001:0001ad90       ?StoreLastScreenPositionForUndraw@DisplayableObject@@QAEXXZ 0041bd90 f   DisplayableObject.obj
 0001:0001add0       ??$GrowArray@PAVFont@@@@YAPAPAVFont@@PAPAV0@AAHH@Z 0041bdd0 f i FontManager.obj
 0001:0001ae90       ??0Font@@QAE@PBDH@Z        0041be90 f i FontManager.obj
 0001:0001af10       ??0FontManager@@QAE@XZ     0041bf10 f   FontManager.obj
 0001:0001afa0       ??1Font@@QAE@XZ            0041bfa0 f i FontManager.obj
 0001:0001b020       ??1FontManager@@QAE@XZ     0041c020 f   FontManager.obj
 0001:0001b0c0       ??_GFont@@QAEPAXI@Z        0041c0c0 f i FontManager.obj
 0001:0001b110       ?GetFont@FontManager@@QAEPAVFont@@PBDH@Z 0041c110 f   FontManager.obj
 0001:0001b330       ?GetName@Font@@QAEPBDXZ    0041c330 f i FontManager.obj
 0001:0001b350       ?GetSize@Font@@QAEHXZ      0041c350 f i FontManager.obj
 0001:0001b370       ?LoadFonts@FontManager@@QAEXXZ 0041c370 f   FontManager.obj
 0001:0001b400       ?DeinitImage@@YAXXZ        0041c400 f   JPGImage.obj
 0001:0001b420       ?FlexibleRenderImageWithMask@ImageData@@QBEXPAUSDL_Surface@@HHHHHHHHHHHHHH@Z 0041c420 f   JPGImage.obj
 0001:0001ba30       ?GetXForRotationAndCrop@@YAHHHHHHH@Z 0041ca30 f i JPGImage.obj
 0001:0001bab0       ?GetYForRotationAndCrop@@YAHHHHHHH@Z 0041cab0 f i JPGImage.obj
 0001:0001bb30       ?InitImage@@YAXXZ          0041cb30 f   JPGImage.obj
 0001:0001bb50       ?LoadImage@ImageData@@QAE_NPBD@Z 0041cb50 f   JPGImage.obj
 0001:0001beb0       ?RenderImage@ImageData@@QBEXPAUSDL_Surface@@HHHHHH@Z 0041ceb0 f   JPGImage.obj
 0001:0001c030       ?RenderImageWithMask@ImageData@@QBEXPAUSDL_Surface@@HHHHHH@Z 0041d030 f   JPGImage.obj
 0001:0001c200       ?ResizeFrom@ImageData@@QAEXPBV1@HH_N@Z 0041d200 f   JPGImage.obj
 0001:0001c700       ?ShrinkFrom@ImageData@@QAEXPBV1@H@Z 0041d700 f   JPGImage.obj
 0001:0001c970       ??$?0AAPAUMove@@AAPAU0@X@?$pair@PAUMove@@PAU1@@std@@QAE@AAPAUMove@@0@Z 0041d970 f i Map.obj
 0001:0001c9c0       ??$?0AAV?$_Tree_const_iterator@V?$_Tree_val@U?$_Tree_simple_types@U?$pair@QAUMove@@PAU1@@std@@@std@@@std@@@std@@AAV01@X@?$pair@V?$_Tree_const_iterator@V?$_Tree_val@U?$_Tree_simple_types@U?$pair@QAUMove@@PAU1@@std@@@std@@@std@@@std@@V12@@std@@QAE@AAV?$_Tree_const_iterator@V?$_Tree_val@U?$_Tree_simple_types@U?$pair@QAUMove@@PAU1@@std@@@std@@@std@@@1@0@Z 0041d9c0 f i Map.obj
 0001:0001ca10       ??$?0AAV?$_Tree_iterator@V?$_Tree_val@U?$_Tree_simple_types@U?$pair@QAUMove@@PAU1@@std@@@std@@@std@@@std@@_NX@?$pair@V?$_Tree_iterator@V?$_Tree_val@U?$_Tree_simple_types@U?$pair@QAUMove@@PAU1@@std@@@std@@@std@@@std@@_N@std@@QAE@AAV?$_Tree_iterator@V?$_Tree_val@U?$_Tree_simple_types@U?$pair@QAUMove@@PAU1@@std@@@std@@@std@@@1@$$QA_N@Z 0041da10 f i Map.obj
 0001:0001ca60       ??$?0PAUMove@@PAU0@X@?$pair@QAUMove@@PAU1@@std@@QAE@$$QAU?$pair@PAUMove@@PAU1@@1@@Z 0041da60 f i Map.obj
 0001:0001cac0       ??$?0U?$_List_node@UCoordinate@@PAX@std@@@?$allocator@UCoordinate@@@std@@QAE@ABV?$allocator@U?$_List_node@UCoordinate@@PAX@std@@@1@@Z 0041dac0 f i Map.obj
 0001:0001cae0       ??$?0V?$_Tree_iterator@V?$_Tree_val@U?$_Tree_simple_types@U?$pair@QAUMove@@PAU1@@std@@@std@@@std@@@std@@_NX@?$pair@V?$_Tree_iterator@V?$_Tree_val@U?$_Tree_simple_types@U?$pair@QAUMove@@PAU1@@std@@@std@@@std@@@std@@_N@std@@QAE@$$QAV?$_Tree_iterator@V?$_Tree_val@U?$_Tree_simple_types@U?$pair@QAUMove@@PAU1@@std@@@std@@@std@@@1@$$QA_N@Z 0041dae0 f i Map.obj
 0001:0001cb30       ??$_Allocate@U?$_List_node@PAUMove@@PAX@std@@@std@@YAPAU?$_List_node@PAUMove@@PAX@0@IPAU10@@Z 0041db30 f i Map.obj
 0001:0001cb90       ??$_Allocate@U?$_List_node@UCoordinate@@PAX@std@@@std@@YAPAU?$_List_node@UCoordinate@@PAX@0@IPAU10@@Z 0041db90 f i Map.obj
 0001:0001cbf0       ??$_Allocate@U?$_Tree_node@U?$pair@QAUMove@@PAU1@@std@@PAX@std@@@std@@YAPAU?$_Tree_node@U?$pair@QAUMove@@PAU1@@std@@PAX@0@IPAU10@@Z 0041dbf0 f i Map.obj
 0001:0001cc50       ??$_Allocate@UCoordinate@@@std@@YAPAUCoordinate@@IPAU1@@Z 0041dc50 f i Map.obj
 0001:0001ccb0       ??$_Buynode@ABQAUMove@@@?$_List_buy@PAUMove@@V?$allocator@PAUMove@@@std@@@std@@QAEPAU?$_List_node@PAUMove@@PAX@1@PAU21@0ABQAUMove@@@Z 0041dcb0 f i Map.obj
 0001:0001cdd0       ??$_Buynode@PAUMove@@@?$_List_buy@PAUMove@@V?$allocator@PAUMove@@@std@@@std@@QAEPAU?$_List_node@PAUMove@@PAX@1@PAU21@0$$QAPAUMove@@@Z 0041ddd0 f i Map.obj
 0001:0001cef0       ??$_Buynode@U?$pair@PAUMove@@PAU1@@std@@@?$_Tree_buy@U?$pair@QAUMove@@PAU1@@std@@V?$allocator@U?$pair@QAUMove@@PAU1@@std@@@2@@std@@QAEPAU?$_Tree_node@U?$pair@QAUMove@@PAU1@@std@@PAX@1@$$QAU?$pair@PAUMove@@PAU1@@1@@Z 0041def0 f i Map.obj
 0001:0001d020       ??$_Buynode@UCoordinate@@@?$_List_buy@UCoordinate@@V?$allocator@UCoordinate@@@std@@@std@@QAEPAU?$_List_node@UCoordinate@@PAX@1@PAU21@0$$QAUCoordinate@@@Z 0041e020 f i Map.obj
 0001:0001d140       ??$_Buynode_if_nil@AAU?$pair@QAUMove@@PAU1@@std@@@?$_Tree@V?$_Tmap_traits@PAUMove@@PAU1@U?$less@PAUMove@@@std@@V?$allocator@U?$pair@QAUMove@@PAU1@@std@@@3@$0A@@std@@@std@@IAEPAU?$_Tree_node@U?$pair@QAUMove@@PAU1@@std@@PAX@1@PAU21@AAU?$pair@QAUMove@@PAU1@@1@@Z 0041e140 f i Map.obj
 0001:0001d160       ??$_Destroy_range@U?$_Wrap_alloc@V?$allocator@UCoordinate@@@std@@@std@@@std@@YAXPAUCoordinate@@0AAU?$_Wrap_alloc@V?$allocator@UCoordinate@@@std@@@0@@Z 0041e160 f i Map.obj
 0001:0001d1b0       ??$_Destroy_range@U?$_Wrap_alloc@V?$allocator@UCoordinate@@@std@@@std@@@std@@YAXPAUCoordinate@@0AAU?$_Wrap_alloc@V?$allocator@UCoordinate@@@std@@@0@U_Nonscalar_ptr_iterator_tag@0@@Z 0041e1b0 f i Map.obj
 0001:0001d1f0       ??$_Distance2@V?$_Tree_const_iterator@V?$_Tree_val@U?$_Tree_simple_types@U?$pair@QAUMove@@PAU1@@std@@@std@@@std@@@std@@I@std@@YAXV?$_Tree_const_iterator@V?$_Tree_val@U?$_Tree_simple_types@U?$pair@QAUMove@@PAU1@@std@@@std@@@std@@@0@0AAIUbidirectional_iterator_tag@0@@Z 0041e1f0 f i Map.obj
 0001:0001d240       ??$_Distance@V?$_Tree_const_iterator@V?$_Tree_val@U?$_Tree_simple_types@U?$pair@QAUMove@@PAU1@@std@@@std@@@std@@@std@@I@std@@YAXV?$_Tree_const_iterator@V?$_Tree_val@U?$_Tree_simple_types@U?$pair@QAUMove@@PAU1@@std@@@std@@@std@@@0@0AAI@Z 0041e240 f i Map.obj
 0001:0001d290       ??$_Fgetc@D@std@@YA_NAADPAU_iobuf@@@Z 0041e290 f i Map.obj
 0001:0001d2e0       ??$_Fputc@D@std@@YA_NDPAU_iobuf@@@Z 0041e2e0 f i Map.obj
 0001:0001d330       ??$_Insert@ABQAUMove@@@?$list@PAUMove@@V?$allocator@PAUMove@@@std@@@std@@QAEXV?$_List_unchecked_const_iterator@V?$_List_val@U?$_List_simple_types@PAUMove@@@std@@@std@@U_Iterator_base0@2@@1@ABQAUMove@@@Z 0041e330 f i Map.obj
 0001:0001d3e0       ??$_Insert@PAUMove@@@?$list@PAUMove@@V?$allocator@PAUMove@@@std@@@std@@QAEXV?$_List_unchecked_const_iterator@V?$_List_val@U?$_List_simple_types@PAUMove@@@std@@@std@@U_Iterator_base0@2@@1@$$QAPAUMove@@@Z 0041e3e0 f i Map.obj
 0001:0001d490       ??$_Insert@UCoordinate@@@?$list@UCoordinate@@V?$allocator@UCoordinate@@@std@@@std@@QAEXV?$_List_unchecked_const_iterator@V?$_List_val@U?$_List_simple_types@UCoordinate@@@std@@@std@@U_Iterator_base0@2@@1@$$QAUCoordinate@@@Z 0041e490 f i Map.obj
 0001:0001d540       ??$_Insert_at@AAU?$pair@QAUMove@@PAU1@@std@@PAU?$_Tree_node@U?$pair@QAUMove@@PAU1@@std@@PAX@2@@?$_Tree@V?$_Tmap_traits@PAUMove@@PAU1@U?$less@PAUMove@@@std@@V?$allocator@U?$pair@QAUMove@@PAU1@@std@@@3@$0A@@std@@@std@@IAE?AV?$_Tree_iterator@V?$_Tree_val@U?$_Tree_simple_types@U?$pair@QAUMove@@PAU1@@std@@@std@@@std@@@1@_NPAU?$_Tree_node@U?$pair@QAUMove@@PAU1@@std@@PAX@1@AAU?$pair@QAUMove@@PAU1@@1@1@Z 0041e540 f i Map.obj
 0001:0001da80       ??$_Insert_nohint@AAU?$pair@QAUMove@@PAU1@@std@@PAU?$_Tree_node@U?$pair@QAUMove@@PAU1@@std@@PAX@2@@?$_Tree@V?$_Tmap_traits@PAUMove@@PAU1@U?$less@PAUMove@@@std@@V?$allocator@U?$pair@QAUMove@@PAU1@@std@@@3@$0A@@std@@@std@@IAE?AU?$pair@V?$_Tree_iterator@V?$_Tree_val@U?$_Tree_simple_types@U?$pair@QAUMove@@PAU1@@std@@@std@@@std@@@std@@_N@1@_NAAU?$pair@QAUMove@@PAU1@@1@PAU?$_Tree_node@U?$pair@QAUMove@@PAU1@@std@@PAX@1@@Z 0041ea80 f i Map.obj
 0001:0001df90       ??$_Iter_cat@V?$_Tree_const_iterator@V?$_Tree_val@U?$_Tree_simple_types@U?$pair@QAUMove@@PAU1@@std@@@std@@@std@@@std@@@std@@YA?AUbidirectional_iterator_tag@0@ABV?$_Tree_const_iterator@V?$_Tree_val@U?$_Tree_simple_types@U?$pair@QAUMove@@PAU1@@std@@@std@@@std@@@0@@Z 0041ef90 f i Map.obj
 0001:0001dfc0       ??$_Kfn@QAUMove@@PAU1@@?$_Tmap_traits@PAUMove@@PAU1@U?$less@PAUMove@@@std@@V?$allocator@U?$pair@QAUMove@@PAU1@@std@@@3@$0A@@std@@SAABQAUMove@@ABU?$pair@QAUMove@@PAU1@@1@@Z 0041efc0 f i Map.obj
 0001:0001dfe0       ??$_Move@AAD@std@@YA$$QADAAD@Z 0041efe0 f i Map.obj
 0001:0001e000       ??$_Move@AAI@std@@YA$$QAIAAI@Z 0041f000 f i Map.obj
 0001:0001e020       ??$_Move@AAPAU?$_List_node@UCoordinate@@PAX@std@@@std@@YA$$QAPAU?$_List_node@UCoordinate@@PAX@0@AAPAU10@@Z 0041f020 f i Map.obj
 0001:0001e040       ??$_Ptr_cat@UCoordinate@@U1@@std@@YA?AU_Nonscalar_ptr_iterator_tag@0@PAUCoordinate@@0@Z 0041f040 f i Map.obj
 0001:0001e060       ??$_Rechecked@PAUCoordinate@@PAU1@@std@@YAAAPAUCoordinate@@AAPAU1@PAU1@@Z 0041f060 f i Map.obj
 0001:0001e090       ??$_Swap_adl@PAU?$_List_node@UCoordinate@@PAX@std@@@std@@YAXAAPAU?$_List_node@UCoordinate@@PAX@0@0@Z 0041f090 f i Map.obj
 0001:0001e0c0       ??$_Umove@PAUCoordinate@@@?$vector@UCoordinate@@V?$allocator@UCoordinate@@@std@@@std@@IAEPAUCoordinate@@PAU2@00@Z 0041f0c0 f i Map.obj
 0001:0001e110       ??$_Unchecked@PAUCoordinate@@@std@@YAPAUCoordinate@@PAU1@@Z 0041f110 f i Map.obj
 0001:0001e130       ??$_Ungetc@D@std@@YA_NABDPAU_iobuf@@@Z 0041f130 f i Map.obj
 0001:0001e180       ??$_Uninit_move@PAUCoordinate@@PAU1@U?$_Wrap_alloc@V?$allocator@UCoordinate@@@std@@@std@@@std@@YAPAUCoordinate@@PAU1@00AAU?$_Wrap_alloc@V?$allocator@UCoordinate@@@std@@@0@@Z 0041f180 f i Map.obj
 0001:0001e1e0       ??$_Uninit_move@PAUCoordinate@@PAU1@V?$allocator@UCoordinate@@@std@@U1@@std@@YAPAUCoordinate@@PAU1@00AAU?$_Wrap_alloc@V?$allocator@UCoordinate@@@std@@@0@0U_Nonscalar_ptr_iterator_tag@0@@Z 0041f1e0 f i Map.obj
 0001:0001e2d0       ??$_Uninitialized_move@PAUCoordinate@@PAU1@U?$_Wrap_alloc@V?$allocator@UCoordinate@@@std@@@std@@@std@@YAPAUCoordinate@@PAU1@00AAU?$_Wrap_alloc@V?$allocator@UCoordinate@@@std@@@0@@Z 0041f2d0 f i Map.obj
 0001:0001e340       ??$_Val_type@PAUCoordinate@@@std@@YAPAUCoordinate@@PAU1@@Z 0041f340 f i Map.obj
 0001:0001e360       ??$addressof@PAU?$_List_node@PAUMove@@PAX@std@@@std@@YAPAPAU?$_List_node@PAUMove@@PAX@0@AAPAU10@@Z 0041f360 f i Map.obj
 0001:0001e380       ??$addressof@PAU?$_List_node@UCoordinate@@PAX@std@@@std@@YAPAPAU?$_List_node@UCoordinate@@PAX@0@AAPAU10@@Z 0041f380 f i Map.obj
 0001:0001e3a0       ??$addressof@PAU?$_Tree_node@U?$pair@QAUMove@@PAU1@@std@@PAX@std@@@std@@YAPAPAU?$_Tree_node@U?$pair@QAUMove@@PAU1@@std@@PAX@0@AAPAU10@@Z 0041f3a0 f i Map.obj
 0001:0001e3c0       ??$addressof@PAUMove@@@std@@YAPAPAUMove@@AAPAU1@@Z 0041f3c0 f i Map.obj
 0001:0001e3e0       ??$addressof@QAUMove@@@std@@YAPBQAUMove@@ABQAU1@@Z 0041f3e0 f i Map.obj
 0001:0001e400       ??$addressof@U?$pair@QAUMove@@PAU1@@std@@@std@@YAPAU?$pair@QAUMove@@PAU1@@0@AAU10@@Z 0041f400 f i Map.obj
 0001:0001e420       ??$addressof@UCoordinate@@@std@@YAPAUCoordinate@@AAU1@@Z 0041f420 f i Map.obj
 0001:0001e440       ??$construct@PAU?$_List_node@PAUMove@@PAX@std@@AAPAU12@@?$_Wrap_alloc@V?$allocator@U?$_List_node@PAUMove@@PAX@std@@@std@@@std@@QAEXPAPAU?$_List_node@PAUMove@@PAX@1@AAPAU21@@Z 0041f440 f i Map.obj
 0001:0001e480       ??$construct@PAU?$_List_node@PAUMove@@PAX@std@@AAPAU12@@?$allocator@U?$_List_node@PAUMove@@PAX@std@@@std@@QAEXPAPAU?$_List_node@PAUMove@@PAX@1@AAPAU21@@Z 0041f480 f i Map.obj
 0001:0001e530       ??$construct@PAU?$_List_node@PAUMove@@PAX@std@@AAPAU12@@?$allocator_traits@V?$allocator@U?$_List_node@PAUMove@@PAX@std@@@std@@@std@@SAXAAV?$allocator@U?$_List_node@PAUMove@@PAX@std@@@1@PAPAU?$_List_node@PAUMove@@PAX@1@AAPAU31@@Z 0041f530 f i Map.obj
 0001:0001e570       ??$construct@PAU?$_List_node@UCoordinate@@PAX@std@@AAPAU12@@?$_Wrap_alloc@V?$allocator@U?$_List_node@UCoordinate@@PAX@std@@@std@@@std@@QAEXPAPAU?$_List_node@UCoordinate@@PAX@1@AAPAU21@@Z 0041f570 f i Map.obj
 0001:0001e5b0       ??$construct@PAU?$_List_node@UCoordinate@@PAX@std@@AAPAU12@@?$allocator@U?$_List_node@UCoordinate@@PAX@std@@@std@@QAEXPAPAU?$_List_node@UCoordinate@@PAX@1@AAPAU21@@Z 0041f5b0 f i Map.obj
 0001:0001e660       ??$construct@PAU?$_List_node@UCoordinate@@PAX@std@@AAPAU12@@?$allocator_traits@V?$allocator@U?$_List_node@UCoordinate@@PAX@std@@@std@@@std@@SAXAAV?$allocator@U?$_List_node@UCoordinate@@PAX@std@@@1@PAPAU?$_List_node@UCoordinate@@PAX@1@AAPAU31@@Z 0041f660 f i Map.obj
 0001:0001e6a0       ??$construct@PAU?$_Tree_node@U?$pair@QAUMove@@PAU1@@std@@PAX@std@@AAPAU12@@?$_Wrap_alloc@V?$allocator@U?$_Tree_node@U?$pair@QAUMove@@PAU1@@std@@PAX@std@@@std@@@std@@QAEXPAPAU?$_Tree_node@U?$pair@QAUMove@@PAU1@@std@@PAX@1@AAPAU21@@Z 0041f6a0 f i Map.obj
 0001:0001e6e0       ??$construct@PAU?$_Tree_node@U?$pair@QAUMove@@PAU1@@std@@PAX@std@@AAPAU12@@?$allocator@U?$_Tree_node@U?$pair@QAUMove@@PAU1@@std@@PAX@std@@@std@@QAEXPAPAU?$_Tree_node@U?$pair@QAUMove@@PAU1@@std@@PAX@1@AAPAU21@@Z 0041f6e0 f i Map.obj
 0001:0001e790       ??$construct@PAU?$_Tree_node@U?$pair@QAUMove@@PAU1@@std@@PAX@std@@AAPAU12@@?$allocator_traits@V?$allocator@U?$_Tree_node@U?$pair@QAUMove@@PAU1@@std@@PAX@std@@@std@@@std@@SAXAAV?$allocator@U?$_Tree_node@U?$pair@QAUMove@@PAU1@@std@@PAX@std@@@1@PAPAU?$_Tree_node@U?$pair@QAUMove@@PAU1@@std@@PAX@1@AAPAU31@@Z 0041f790 f i Map.obj
 0001:0001e7d0       ??$construct@PAUMove@@ABQAU1@@?$_Wrap_alloc@V?$allocator@U?$_List_node@PAUMove@@PAX@std@@@std@@@std@@QAEXPAPAUMove@@ABQAU2@@Z 0041f7d0 f i Map.obj
 0001:0001e810       ??$construct@PAUMove@@ABQAU1@@?$allocator@U?$_List_node@PAUMove@@PAX@std@@@std@@QAEXPAPAUMove@@ABQAU2@@Z 0041f810 f i Map.obj
 0001:0001e8c0       ??$construct@PAUMove@@ABQAU1@@?$allocator_traits@V?$allocator@U?$_List_node@PAUMove@@PAX@std@@@std@@@std@@SAXAAV?$allocator@U?$_List_node@PAUMove@@PAX@std@@@1@PAPAUMove@@ABQAU3@@Z 0041f8c0 f i Map.obj
 0001:0001e900       ??$construct@PAUMove@@PAU1@@?$_Wrap_alloc@V?$allocator@U?$_List_node@PAUMove@@PAX@std@@@std@@@std@@QAEXPAPAUMove@@$$QAPAU2@@Z 0041f900 f i Map.obj
 0001:0001e940       ??$construct@PAUMove@@PAU1@@?$allocator@U?$_List_node@PAUMove@@PAX@std@@@std@@QAEXPAPAUMove@@$$QAPAU2@@Z 0041f940 f i Map.obj
 0001:0001e9f0       ??$construct@PAUMove@@PAU1@@?$allocator_traits@V?$allocator@U?$_List_node@PAUMove@@PAX@std@@@std@@@std@@SAXAAV?$allocator@U?$_List_node@PAUMove@@PAX@std@@@1@PAPAUMove@@$$QAPAU3@@Z 0041f9f0 f i Map.obj
 0001:0001ea30       ??$construct@U?$pair@QAUMove@@PAU1@@std@@U?$pair@PAUMove@@PAU1@@2@@?$_Wrap_alloc@V?$allocator@U?$_Tree_node@U?$pair@QAUMove@@PAU1@@std@@PAX@std@@@std@@@std@@QAEXPAU?$pair@QAUMove@@PAU1@@1@$$QAU?$pair@PAUMove@@PAU1@@1@@Z 0041fa30 f i Map.obj
 0001:0001ea70       ??$construct@U?$pair@QAUMove@@PAU1@@std@@U?$pair@PAUMove@@PAU1@@2@@?$allocator@U?$_Tree_node@U?$pair@QAUMove@@PAU1@@std@@PAX@std@@@std@@QAEXPAU?$pair@QAUMove@@PAU1@@1@$$QAU?$pair@PAUMove@@PAU1@@1@@Z 0041fa70 f i Map.obj
 0001:0001eb20       ??$construct@U?$pair@QAUMove@@PAU1@@std@@U?$pair@PAUMove@@PAU1@@2@@?$allocator_traits@V?$allocator@U?$_Tree_node@U?$pair@QAUMove@@PAU1@@std@@PAX@std@@@std@@@std@@SAXAAV?$allocator@U?$_Tree_node@U?$pair@QAUMove@@PAU1@@std@@PAX@std@@@1@PAU?$pair@QAUMove@@PAU1@@1@$$QAU?$pair@PAUMove@@PAU1@@1@@Z 0041fb20 f i Map.obj
 0001:0001eb60       ??$construct@UCoordinate@@U1@@?$_Wrap_alloc@V?$allocator@U?$_List_node@UCoordinate@@PAX@std@@@std@@@std@@QAEXPAUCoordinate@@$$QAU2@@Z 0041fb60 f i Map.obj
 0001:0001eba0       ??$construct@UCoordinate@@U1@@?$_Wrap_alloc@V?$allocator@UCoordinate@@@std@@@std@@QAEXPAUCoordinate@@$$QAU2@@Z 0041fba0 f i Map.obj
 0001:0001ebe0       ??$construct@UCoordinate@@U1@@?$allocator@U?$_List_node@UCoordinate@@PAX@std@@@std@@QAEXPAUCoordinate@@$$QAU2@@Z 0041fbe0 f i Map.obj
 0001:0001eca0       ??$construct@UCoordinate@@U1@@?$allocator@UCoordinate@@@std@@QAEXPAUCoordinate@@$$QAU2@@Z 0041fca0 f i Map.obj
 0001:0001ed60       ??$construct@UCoordinate@@U1@@?$allocator_traits@V?$allocator@U?$_List_node@UCoordinate@@PAX@std@@@std@@@std@@SAXAAV?$allocator@U?$_List_node@UCoordinate@@PAX@std@@@1@PAUCoordinate@@$$QAU3@@Z 0041fd60 f i Map.obj
 0001:0001eda0       ??$construct@UCoordinate@@U1@@?$allocator_traits@V?$allocator@UCoordinate@@@std@@@std@@SAXAAV?$allocator@UCoordinate@@@1@PAUCoordinate@@$$QAU3@@Z 0041fda0 f i Map.obj
 0001:0001ede0       ??$destroy@PAU?$_List_node@PAUMove@@PAX@std@@@?$_Wrap_alloc@V?$allocator@U?$_List_node@PAUMove@@PAX@std@@@std@@@std@@QAEXPAPAU?$_List_node@PAUMove@@PAX@1@@Z 0041fde0 f i Map.obj
 0001:0001ee10       ??$destroy@PAU?$_List_node@PAUMove@@PAX@std@@@?$allocator@U?$_List_node@PAUMove@@PAX@std@@@std@@QAEXPAPAU?$_List_node@PAUMove@@PAX@1@@Z 0041fe10 f i Map.obj
 0001:0001ee30       ??$destroy@PAU?$_List_node@PAUMove@@PAX@std@@@?$allocator_traits@V?$allocator@U?$_List_node@PAUMove@@PAX@std@@@std@@@std@@SAXAAV?$allocator@U?$_List_node@PAUMove@@PAX@std@@@1@PAPAU?$_List_node@PAUMove@@PAX@1@@Z 0041fe30 f i Map.obj
 0001:0001ee60       ??$destroy@PAU?$_List_node@UCoordinate@@PAX@std@@@?$_Wrap_alloc@V?$allocator@U?$_List_node@UCoordinate@@PAX@std@@@std@@@std@@QAEXPAPAU?$_List_node@UCoordinate@@PAX@1@@Z 0041fe60 f i Map.obj
 0001:0001ee90       ??$destroy@PAU?$_List_node@UCoordinate@@PAX@std@@@?$allocator@U?$_List_node@UCoordinate@@PAX@std@@@std@@QAEXPAPAU?$_List_node@UCoordinate@@PAX@1@@Z 0041fe90 f i Map.obj
 0001:0001eeb0       ??$destroy@PAU?$_List_node@UCoordinate@@PAX@std@@@?$allocator_traits@V?$allocator@U?$_List_node@UCoordinate@@PAX@std@@@std@@@std@@SAXAAV?$allocator@U?$_List_node@UCoordinate@@PAX@std@@@1@PAPAU?$_List_node@UCoordinate@@PAX@1@@Z 0041feb0 f i Map.obj
 0001:0001eee0       ??$destroy@PAU?$_Tree_node@U?$pair@QAUMove@@PAU1@@std@@PAX@std@@@?$_Wrap_alloc@V?$allocator@U?$_Tree_node@U?$pair@QAUMove@@PAU1@@std@@PAX@std@@@std@@@std@@QAEXPAPAU?$_Tree_node@U?$pair@QAUMove@@PAU1@@std@@PAX@1@@Z 0041fee0 f i Map.obj
 0001:0001ef10       ??$destroy@PAU?$_Tree_node@U?$pair@QAUMove@@PAU1@@std@@PAX@std@@@?$allocator@U?$_Tree_node@U?$pair@QAUMove@@PAU1@@std@@PAX@std@@@std@@QAEXPAPAU?$_Tree_node@U?$pair@QAUMove@@PAU1@@std@@PAX@1@@Z 0041ff10 f i Map.obj
 0001:0001ef30       ??$destroy@PAU?$_Tree_node@U?$pair@QAUMove@@PAU1@@std@@PAX@std@@@?$allocator_traits@V?$allocator@U?$_Tree_node@U?$pair@QAUMove@@PAU1@@std@@PAX@std@@@std@@@std@@SAXAAV?$allocator@U?$_Tree_node@U?$pair@QAUMove@@PAU1@@std@@PAX@std@@@1@PAPAU?$_Tree_node@U?$pair@QAUMove@@PAU1@@std@@PAX@1@@Z 0041ff30 f i Map.obj
 0001:0001ef60       ??$destroy@PAUMove@@@?$_Wrap_alloc@V?$allocator@U?$_List_node@PAUMove@@PAX@std@@@std@@@std@@QAEXPAPAUMove@@@Z 0041ff60 f i Map.obj
 0001:0001ef90       ??$destroy@PAUMove@@@?$allocator@U?$_List_node@PAUMove@@PAX@std@@@std@@QAEXPAPAUMove@@@Z 0041ff90 f i Map.obj
 0001:0001efb0       ??$destroy@PAUMove@@@?$allocator_traits@V?$allocator@U?$_List_node@PAUMove@@PAX@std@@@std@@@std@@SAXAAV?$allocator@U?$_List_node@PAUMove@@PAX@std@@@1@PAPAUMove@@@Z 0041ffb0 f i Map.obj
 0001:0001efe0       ??$destroy@U?$pair@QAUMove@@PAU1@@std@@@?$_Wrap_alloc@V?$allocator@U?$_Tree_node@U?$pair@QAUMove@@PAU1@@std@@PAX@std@@@std@@@std@@QAEXPAU?$pair@QAUMove@@PAU1@@1@@Z 0041ffe0 f i Map.obj
 0001:0001f010       ??$destroy@U?$pair@QAUMove@@PAU1@@std@@@?$allocator@U?$_Tree_node@U?$pair@QAUMove@@PAU1@@std@@PAX@std@@@std@@QAEXPAU?$pair@QAUMove@@PAU1@@1@@Z 00420010 f i Map.obj
 0001:0001f030       ??$destroy@U?$pair@QAUMove@@PAU1@@std@@@?$allocator_traits@V?$allocator@U?$_Tree_node@U?$pair@QAUMove@@PAU1@@std@@PAX@std@@@std@@@std@@SAXAAV?$allocator@U?$_Tree_node@U?$pair@QAUMove@@PAU1@@std@@PAX@std@@@1@PAU?$pair@QAUMove@@PAU1@@1@@Z 00420030 f i Map.obj
 0001:0001f060       ??$destroy@UCoordinate@@@?$_Wrap_alloc@V?$allocator@U?$_List_node@UCoordinate@@PAX@std@@@std@@@std@@QAEXPAUCoordinate@@@Z 00420060 f i Map.obj
 0001:0001f090       ??$destroy@UCoordinate@@@?$_Wrap_alloc@V?$allocator@UCoordinate@@@std@@@std@@QAEXPAUCoordinate@@@Z 00420090 f i Map.obj
 0001:0001f0c0       ??$destroy@UCoordinate@@@?$allocator@U?$_List_node@UCoordinate@@PAX@std@@@std@@QAEXPAUCoordinate@@@Z 004200c0 f i Map.obj
 0001:0001f0e0       ??$destroy@UCoordinate@@@?$allocator@UCoordinate@@@std@@QAEXPAUCoordinate@@@Z 004200e0 f i Map.obj
 0001:0001f100       ??$destroy@UCoordinate@@@?$allocator_traits@V?$allocator@U?$_List_node@UCoordinate@@PAX@std@@@std@@@std@@SAXAAV?$allocator@U?$_List_node@UCoordinate@@PAX@std@@@1@PAUCoordinate@@@Z 00420100 f i Map.obj
 0001:0001f130       ??$destroy@UCoordinate@@@?$allocator_traits@V?$allocator@UCoordinate@@@std@@@std@@SAXAAV?$allocator@UCoordinate@@@1@PAUCoordinate@@@Z 00420130 f i Map.obj
 0001:0001f160       ??$forward@AAPAU?$_List_node@PAUMove@@PAX@std@@@std@@YAAAPAU?$_List_node@PAUMove@@PAX@0@AAPAU10@@Z 00420160 f i Map.obj
 0001:0001f180       ??$forward@AAPAU?$_List_node@UCoordinate@@PAX@std@@@std@@YAAAPAU?$_List_node@UCoordinate@@PAX@0@AAPAU10@@Z 00420180 f i Map.obj
 0001:0001f1a0       ??$forward@AAPAU?$_Tree_node@U?$pair@QAUMove@@PAU1@@std@@PAX@std@@@std@@YAAAPAU?$_Tree_node@U?$pair@QAUMove@@PAU1@@std@@PAX@0@AAPAU10@@Z 004201a0 f i Map.obj
 0001:0001f1c0       ??$forward@AAPAUMove@@@std@@YAAAPAUMove@@AAPAU1@@Z 004201c0 f i Map.obj
 0001:0001f1e0       ??$forward@AAU?$pair@QAUMove@@PAU1@@std@@@std@@YAAAU?$pair@QAUMove@@PAU1@@0@AAU10@@Z 004201e0 f i Map.obj
 0001:0001f200       ??$forward@AAV?$_Tree_const_iterator@V?$_Tree_val@U?$_Tree_simple_types@U?$pair@QAUMove@@PAU1@@std@@@std@@@std@@@std@@@std@@YAAAV?$_Tree_const_iterator@V?$_Tree_val@U?$_Tree_simple_types@U?$pair@QAUMove@@PAU1@@std@@@std@@@std@@@0@AAV10@@Z 00420200 f i Map.obj
 0001:0001f220       ??$forward@AAV?$_Tree_iterator@V?$_Tree_val@U?$_Tree_simple_types@U?$pair@QAUMove@@PAU1@@std@@@std@@@std@@@std@@@std@@YAAAV?$_Tree_iterator@V?$_Tree_val@U?$_Tree_simple_types@U?$pair@QAUMove@@PAU1@@std@@@std@@@std@@@0@AAV10@@Z 00420220 f i Map.obj
 0001:0001f240       ??$forward@ABQAUMove@@@std@@YAABQAUMove@@ABQAU1@@Z 00420240 f i Map.obj
 0001:0001f260       ??$forward@PAUMove@@@std@@YA$$QAPAUMove@@AAPAU1@@Z 00420260 f i Map.obj
 0001:0001f280       ??$forward@U?$pair@PAUMove@@PAU1@@std@@@std@@YA$$QAU?$pair@PAUMove@@PAU1@@0@AAU10@@Z 00420280 f i Map.obj
 0001:0001f2a0       ??$forward@UCoordinate@@@std@@YA$$QAUCoordinate@@AAU1@@Z 004202a0 f i Map.obj
 0001:0001f2c0       ??$forward@V?$_Tree_iterator@V?$_Tree_val@U?$_Tree_simple_types@U?$pair@QAUMove@@PAU1@@std@@@std@@@std@@@std@@@std@@YA$$QAV?$_Tree_iterator@V?$_Tree_val@U?$_Tree_simple_types@U?$pair@QAUMove@@PAU1@@std@@@std@@@std@@@0@AAV10@@Z 004202c0 f i Map.obj
 0001:0001f2e0       ??$forward@V?$list@UCoordinate@@V?$allocator@UCoordinate@@@std@@@std@@@std@@YA$$QAV?$list@UCoordinate@@V?$allocator@UCoordinate@@@std@@@0@AAV10@@Z 004202e0 f i Map.obj
 0001:0001f300       ??$forward@_N@std@@YA$$QA_NAA_N@Z 00420300 f i Map.obj
 0001:0001f320       ??$getline@DU?$char_traits@D@std@@V?$allocator@D@2@@std@@YAAAV?$basic_istream@DU?$char_traits@D@std@@@0@$$QAV10@AAV?$basic_string@DU?$char_traits@D@std@@V?$allocator@D@2@@0@D@Z 00420320 f i Map.obj
 0001:0001f5a0       ??$getline@DU?$char_traits@D@std@@V?$allocator@D@2@@std@@YAAAV?$basic_istream@DU?$char_traits@D@std@@@0@AAV10@AAV?$basic_string@DU?$char_traits@D@std@@V?$allocator@D@2@@0@@Z 004205a0 f i Map.obj
 0001:0001f600       ??$insert@U?$pair@PAUMove@@PAU1@@std@@@?$_Tree@V?$_Tmap_traits@PAUMove@@PAU1@U?$less@PAUMove@@@std@@V?$allocator@U?$pair@QAUMove@@PAU1@@std@@@3@$0A@@std@@@std@@QAE?AU?$pair@V?$_Tree_iterator@V?$_Tree_val@U?$_Tree_simple_types@U?$pair@QAUMove@@PAU1@@std@@@std@@@std@@@std@@_N@1@$$QAU?$pair@PAUMove@@PAU1@@1@@Z 00420600 f i Map.obj
 0001:0001f670       ??$make_pair@AAPAUMove@@AAPAU1@@std@@YA?AU?$pair@PAUMove@@PAU1@@0@AAPAUMove@@0@Z 00420670 f i Map.obj
 0001:0001f6c0       ??$move@AAV?$basic_istream@DU?$char_traits@D@std@@@std@@@std@@YA$$QAV?$basic_istream@DU?$char_traits@D@std@@@0@AAV10@@Z 004206c0 f i Map.obj
 0001:0001f6e0       ??$swap@D@std@@YAXAAD0@Z   004206e0 f i Map.obj
 0001:0001f740       ??$swap@I@std@@YAXAAI0@Z   00420740 f i Map.obj
 0001:0001f7a0       ??$swap@PAU?$_List_node@UCoordinate@@PAX@std@@@std@@YAXAAPAU?$_List_node@UCoordinate@@PAX@0@0@Z 004207a0 f i Map.obj
 0001:0001f800       ??$use_facet@V?$codecvt@DDH@std@@@std@@YAABV?$codecvt@DDH@0@ABVlocale@0@@Z 00420800 f i Map.obj
 0001:0001f950       ??0?$_List_alloc@$0A@U?$_List_base_types@PAUMove@@V?$allocator@PAUMove@@@std@@@std@@@std@@QAE@ABV?$allocator@PAUMove@@@1@@Z 00420950 f i Map.obj
 0001:0001f990       ??0?$_List_alloc@$0A@U?$_List_base_types@UCoordinate@@V?$allocator@UCoordinate@@@std@@@std@@@std@@QAE@ABV?$allocator@UCoordinate@@@1@@Z 00420990 f i Map.obj
 0001:0001f9d0       ??0?$_List_buy@PAUMove@@V?$allocator@PAUMove@@@std@@@std@@QAE@ABV?$allocator@PAUMove@@@1@@Z 004209d0 f i Map.obj
 0001:0001fa00       ??0?$_List_buy@UCoordinate@@V?$allocator@UCoordinate@@@std@@@std@@QAE@ABV?$allocator@UCoordinate@@@1@@Z 00420a00 f i Map.obj
 0001:0001fa30       ??0?$_List_const_iterator@V?$_List_val@U?$_List_simple_types@PAUMove@@@std@@@std@@@std@@QAE@PAU?$_List_node@PAUMove@@PAX@1@PBV?$_List_val@U?$_List_simple_types@PAUMove@@@std@@@1@@Z 00420a30 f i Map.obj
 0001:0001fa70       ??0?$_List_iterator@V?$_List_val@U?$_List_simple_types@PAUMove@@@std@@@std@@@std@@QAE@PAU?$_List_node@PAUMove@@PAX@1@PBV?$_List_val@U?$_List_simple_types@PAUMove@@@std@@@1@@Z 00420a70 f i Map.obj
 0001:0001fab0       ??0?$_List_unchecked_const_iterator@V?$_List_val@U?$_List_simple_types@PAUMove@@@std@@@std@@U_Iterator_base0@2@@std@@QAE@PAU?$_List_node@PAUMove@@PAX@1@PBV?$_List_val@U?$_List_simple_types@PAUMove@@@std@@@1@@Z 00420ab0 f i Map.obj
 0001:0001faf0       ??0?$_List_unchecked_const_iterator@V?$_List_val@U?$_List_simple_types@UCoordinate@@@std@@@std@@U_Iterator_base0@2@@std@@QAE@PAU?$_List_node@UCoordinate@@PAX@1@PBV?$_List_val@U?$_List_simple_types@UCoordinate@@@std@@@1@@Z 00420af0 f i Map.obj
 0001:0001fb30       ??0?$_List_unchecked_iterator@V?$_List_val@U?$_List_simple_types@PAUMove@@@std@@@std@@@std@@QAE@PAU?$_List_node@PAUMove@@PAX@1@PBV?$_List_val@U?$_List_simple_types@PAUMove@@@std@@@1@@Z 00420b30 f i Map.obj
 0001:0001fb70       ??0?$_List_unchecked_iterator@V?$_List_val@U?$_List_simple_types@UCoordinate@@@std@@@std@@@std@@QAE@PAU?$_List_node@UCoordinate@@PAX@1@PBV?$_List_val@U?$_List_simple_types@UCoordinate@@@std@@@1@@Z 00420b70 f i Map.obj
 0001:0001fbb0       ??0?$_List_val@U?$_List_simple_types@PAUMove@@@std@@@std@@QAE@XZ 00420bb0 f i Map.obj
 0001:0001fbf0       ??0?$_List_val@U?$_List_simple_types@UCoordinate@@@std@@@std@@QAE@XZ 00420bf0 f i Map.obj
 0001:0001fc30       ??0?$_String_const_iterator@V?$_String_val@U?$_Simple_types@D@std@@@std@@@std@@QAE@PBDPBU_Container_base0@1@@Z 00420c30 f i Map.obj
 0001:0001fc70       ??0?$_String_iterator@V?$_String_val@U?$_Simple_types@D@std@@@std@@@std@@QAE@PADPBU_Container_base0@1@@Z 00420c70 f i Map.obj
 0001:0001fcb0       ??0?$_Tree@V?$_Tmap_traits@PAUMove@@PAU1@U?$less@PAUMove@@@std@@V?$allocator@U?$pair@QAUMove@@PAU1@@std@@@3@$0A@@std@@@std@@QAE@ABU?$less@PAUMove@@@1@ABV?$allocator@U?$pair@QAUMove@@PAU1@@std@@@1@@Z 00420cb0 f i Map.obj
 0001:0001fcf0       ??0?$_Tree_alloc@$0A@U?$_Tree_base_types@U?$pair@QAUMove@@PAU1@@std@@V?$allocator@U?$pair@QAUMove@@PAU1@@std@@@2@@std@@@std@@QAE@ABV?$allocator@U?$pair@QAUMove@@PAU1@@std@@@1@@Z 00420cf0 f i Map.obj
 0001:0001fd30       ??0?$_Tree_buy@U?$pair@QAUMove@@PAU1@@std@@V?$allocator@U?$pair@QAUMove@@PAU1@@std@@@2@@std@@QAE@ABV?$allocator@U?$pair@QAUMove@@PAU1@@std@@@1@@Z 00420d30 f i Map.obj
 0001:0001fd60       ??0?$_Tree_comp@$0A@V?$_Tmap_traits@PAUMove@@PAU1@U?$less@PAUMove@@@std@@V?$allocator@U?$pair@QAUMove@@PAU1@@std@@@3@$0A@@std@@@std@@QAE@ABU?$less@PAUMove@@@1@ABV?$allocator@U?$pair@QAUMove@@PAU1@@std@@@1@@Z 00420d60 f i Map.obj
 0001:0001fd90       ??0?$_Tree_const_iterator@V?$_Tree_val@U?$_Tree_simple_types@U?$pair@QAUMove@@PAU1@@std@@@std@@@std@@@std@@QAE@PAU?$_Tree_node@U?$pair@QAUMove@@PAU1@@std@@PAX@1@PBV?$_Tree_val@U?$_Tree_simple_types@U?$pair@QAUMove@@PAU1@@std@@@std@@@1@@Z 00420d90 f i Map.obj
 0001:0001fdd0       ??0?$_Tree_iterator@V?$_Tree_val@U?$_Tree_simple_types@U?$pair@QAUMove@@PAU1@@std@@@std@@@std@@@std@@QAE@PAU?$_Tree_node@U?$pair@QAUMove@@PAU1@@std@@PAX@1@PBV?$_Tree_val@U?$_Tree_simple_types@U?$pair@QAUMove@@PAU1@@std@@@std@@@1@@Z 00420dd0 f i Map.obj
 0001:0001fe10       ??0?$_Tree_unchecked_const_iterator@V?$_Tree_val@U?$_Tree_simple_types@U?$pair@QAUMove@@PAU1@@std@@@std@@@std@@U_Iterator_base0@2@@std@@QAE@PAU?$_Tree_node@U?$pair@QAUMove@@PAU1@@std@@PAX@1@PBV?$_Tree_val@U?$_Tree_simple_types@U?$pair@QAUMove@@PAU1@@std@@@std@@@1@@Z 00420e10 f i Map.obj
 0001:0001fe50       ??0?$_Tree_val@U?$_Tree_simple_types@U?$pair@QAUMove@@PAU1@@std@@@std@@@std@@QAE@XZ 00420e50 f i Map.obj
 0001:0001fe90       ??0?$_Vector_alloc@$0A@U?$_Vec_base_types@UCoordinate@@V?$allocator@UCoordinate@@@std@@@std@@@std@@QAE@ABV?$allocator@UCoordinate@@@1@@Z 00420e90 f i Map.obj
 0001:0001fec0       ??0?$_Vector_const_iterator@V?$_Vector_val@U?$_Simple_types@V?$basic_string@DU?$char_traits@D@std@@V?$allocator@D@2@@std@@@std@@@std@@@std@@QAE@PAV?$basic_string@DU?$char_traits@D@std@@V?$allocator@D@2@@1@PBU_Container_base0@1@@Z 00420ec0 f i Map.obj
 0001:0001ff00       ??0?$_Vector_iterator@V?$_Vector_val@U?$_Simple_types@V?$basic_string@DU?$char_traits@D@std@@V?$allocator@D@2@@std@@@std@@@std@@@std@@QAE@PAV?$basic_string@DU?$char_traits@D@std@@V?$allocator@D@2@@1@PBU_Container_base0@1@@Z 00420f00 f i Map.obj
 0001:0001ff40       ??0?$_Vector_val@U?$_Simple_types@UCoordinate@@@std@@@std@@QAE@XZ 00420f40 f i Map.obj
 0001:0001ff80       ??0?$_Wrap_alloc@V?$allocator@U?$_List_node@PAUMove@@PAX@std@@@std@@@std@@QAE@XZ 00420f80 f i Map.obj
 0001:0001ffb0       ??0?$_Wrap_alloc@V?$allocator@U?$_List_node@UCoordinate@@PAX@std@@@std@@@std@@QAE@XZ 00420fb0 f i Map.obj
 0001:0001ffe0       ??0?$_Wrap_alloc@V?$allocator@U?$_Tree_node@U?$pair@QAUMove@@PAU1@@std@@PAX@std@@@std@@@std@@QAE@XZ 00420fe0 f i Map.obj
 0001:00020010       ??0?$_Wrap_alloc@V?$allocator@UCoordinate@@@std@@@std@@QAE@XZ 00421010 f i Map.obj
 0001:00020040       ??0?$allocator@PAUMove@@@std@@QAE@XZ 00421040 f i Map.obj
 0001:00020060       ??0?$allocator@U?$_List_node@PAUMove@@PAX@std@@@std@@QAE@XZ 00421060 f i Map.obj
 0001:00020080       ??0?$allocator@U?$_List_node@UCoordinate@@PAX@std@@@std@@QAE@XZ 00421080 f i Map.obj
 0001:000200a0       ??0?$allocator@U?$_Tree_node@U?$pair@QAUMove@@PAU1@@std@@PAX@std@@@std@@QAE@XZ 004210a0 f i Map.obj
 0001:000200c0       ??0?$allocator@U?$pair@QAUMove@@PAU1@@std@@@std@@QAE@XZ 004210c0 f i Map.obj
 0001:000200e0       ??0?$allocator@UCoordinate@@@std@@QAE@XZ 004210e0 f i Map.obj
 0001:00020100       ??0?$basic_filebuf@DU?$char_traits@D@std@@@std@@QAE@PAU_iobuf@@@Z 00421100 f i Map.obj
 0001:00020190       ??0?$basic_ifstream@DU?$char_traits@D@std@@@std@@QAE@PBDHH@Z 00421190 f i Map.obj
 0001:000202e0       ??0?$basic_string@DU?$char_traits@D@std@@V?$allocator@D@2@@std@@QAE@ABV01@IIABV?$allocator@D@1@@Z 004212e0 f i Map.obj
 0001:00020340       ??0?$basic_string@DU?$char_traits@D@std@@V?$allocator@D@2@@std@@QAE@ID@Z 00421340 f i Map.obj
 0001:000203a0       ??0?$fpos@H@std@@QAE@H_J@Z 004213a0 f i Map.obj
 0001:000203f0       ??0?$list@PAUMove@@V?$allocator@PAUMove@@@std@@@std@@QAE@XZ 004213f0 f i Map.obj
 0001:00020420       ??0?$list@UCoordinate@@V?$allocator@UCoordinate@@@std@@@std@@QAE@$$QAV01@@Z 00421420 f i Map.obj
 0001:000204d0       ??0?$list@UCoordinate@@V?$allocator@UCoordinate@@@std@@@std@@QAE@XZ 004214d0 f i Map.obj
 0001:00020500       ??0?$map@PAUMove@@PAU1@U?$less@PAUMove@@@std@@V?$allocator@U?$pair@QAUMove@@PAU1@@std@@@3@@std@@QAE@XZ 00421500 f i Map.obj
 0001:00020540       ??0?$vector@UCoordinate@@V?$allocator@UCoordinate@@@std@@@std@@QAE@XZ 00421540 f i Map.obj
 0001:00020570       ??0Coordinate@@QAE@HH@Z    00421570 f i Map.obj
 0001:000205b0       ??0Map@@QAE@PAVPsyja2TileManager@@PAPAHHH@Z 004215b0 f   Map.obj
 0001:00020620       ??0Map@@QAE@PAVPsyja2TileManager@@PBD@Z 00421620 f   Map.obj
 0001:00020690       ??0Move@@QAE@HHNN@Z        00421690 f i Map.obj
 0001:000206f0       ??0_Ignore@std@@QAE@XZ     004216f0 f i Map.obj
 0001:00020710       ??0_Sentry_base@?$basic_istream@DU?$char_traits@D@std@@@std@@QAE@AAV12@@Z 00421710 f i Map.obj
 0001:00020790       ??0logic_error@std@@QAE@ABV01@@Z 00421790 f i Map.obj
 0001:000207d0       ??0logic_error@std@@QAE@PBD@Z 004217d0 f i Map.obj
 0001:00020810       ??0out_of_range@std@@QAE@ABV01@@Z 00421810 f i Map.obj
 0001:00020850       ??0out_of_range@std@@QAE@PBD@Z 00421850 f i Map.obj
 0001:00020890       ??0sentry@?$basic_istream@DU?$char_traits@D@std@@@std@@QAE@AAV12@_N@Z 00421890 f i Map.obj
 0001:00020920       ??1?$_List_alloc@$0A@U?$_List_base_types@PAUMove@@V?$allocator@PAUMove@@@std@@@std@@@std@@QAE@XZ 00421920 f i Map.obj
 0001:00020950       ??1?$_List_alloc@$0A@U?$_List_base_types@UCoordinate@@V?$allocator@UCoordinate@@@std@@@std@@@std@@QAE@XZ 00421950 f i Map.obj
 0001:00020980       ??1?$_List_buy@PAUMove@@V?$allocator@PAUMove@@@std@@@std@@QAE@XZ 00421980 f i Map.obj
 0001:000209b0       ??1?$_List_buy@UCoordinate@@V?$allocator@UCoordinate@@@std@@@std@@QAE@XZ 004219b0 f i Map.obj
 0001:000209e0       ??1?$_Tree@V?$_Tmap_traits@PAUMove@@PAU1@U?$less@PAUMove@@@std@@V?$allocator@U?$pair@QAUMove@@PAU1@@std@@@3@$0A@@std@@@std@@QAE@XZ 004219e0 f i Map.obj
 0001:00020a10       ??1?$_Tree_alloc@$0A@U?$_Tree_base_types@U?$pair@QAUMove@@PAU1@@std@@V?$allocator@U?$pair@QAUMove@@PAU1@@std@@@2@@std@@@std@@QAE@XZ 00421a10 f i Map.obj
 0001:00020a40       ??1?$_Tree_buy@U?$pair@QAUMove@@PAU1@@std@@V?$allocator@U?$pair@QAUMove@@PAU1@@std@@@2@@std@@QAE@XZ 00421a40 f i Map.obj
 0001:00020a70       ??1?$_Tree_comp@$0A@V?$_Tmap_traits@PAUMove@@PAU1@U?$less@PAUMove@@@std@@V?$allocator@U?$pair@QAUMove@@PAU1@@std@@@3@$0A@@std@@@std@@QAE@XZ 00421a70 f i Map.obj
 0001:00020aa0       ??1?$basic_filebuf@DU?$char_traits@D@std@@@std@@UAE@XZ 00421aa0 f i Map.obj
 0001:00020b00       ??1?$basic_ifstream@DU?$char_traits@D@std@@@std@@UAE@XZ 00421b00 f i Map.obj
 0001:00020b70       ??1?$list@PAUMove@@V?$allocator@PAUMove@@@std@@@std@@QAE@XZ 00421b70 f i Map.obj
 0001:00020ba0       ??1?$list@UCoordinate@@V?$allocator@UCoordinate@@@std@@@std@@QAE@XZ 00421ba0 f i Map.obj
 0001:00020bd0       ??1?$map@PAUMove@@PAU1@U?$less@PAUMove@@@std@@V?$allocator@U?$pair@QAUMove@@PAU1@@std@@@3@@std@@QAE@XZ 00421bd0 f i Map.obj
 0001:00020c00       ??1?$vector@UCoordinate@@V?$allocator@UCoordinate@@@std@@@std@@QAE@XZ 00421c00 f i Map.obj
 0001:00020c30       ??1Map@@QAE@XZ             00421c30 f   Map.obj
 0001:00020c50       ??1_Sentry_base@?$basic_istream@DU?$char_traits@D@std@@@std@@QAE@XZ 00421c50 f i Map.obj
 0001:00020cc0       ??1locale@std@@QAE@XZ      00421cc0 f i Map.obj
 0001:00020d30       ??1logic_error@std@@UAE@XZ 00421d30 f i Map.obj
 0001:00020d60       ??1out_of_range@std@@UAE@XZ 00421d60 f i Map.obj
 0001:00020d90       ??1sentry@?$basic_istream@DU?$char_traits@D@std@@@std@@QAE@XZ 00421d90 f i Map.obj
 0001:00020dc0       ??8?$_List_const_iterator@V?$_List_val@U?$_List_simple_types@PAUMove@@@std@@@std@@@std@@QBE_NABV01@@Z 00421dc0 f i Map.obj
 0001:00020e10       ??8?$_Tree_const_iterator@V?$_Tree_val@U?$_Tree_simple_types@U?$pair@QAUMove@@PAU1@@std@@@std@@@std@@@std@@QBE_NABV01@@Z 00421e10 f i Map.obj
 0001:00020e60       ??8?$_Vector_const_iterator@V?$_Vector_val@U?$_Simple_types@V?$basic_string@DU?$char_traits@D@std@@V?$allocator@D@2@@std@@@std@@@std@@@std@@QBE_NABV01@@Z 00421e60 f i Map.obj
 0001:00020eb0       ??9?$_List_const_iterator@V?$_List_val@U?$_List_simple_types@PAUMove@@@std@@@std@@@std@@QBE_NABV01@@Z 00421eb0 f i Map.obj
 0001:00020f00       ??9?$_Tree_const_iterator@V?$_Tree_val@U?$_Tree_simple_types@U?$pair@QAUMove@@PAU1@@std@@@std@@@std@@@std@@QBE_NABV01@@Z 00421f00 f i Map.obj
 0001:00020f50       ??9?$_Vector_const_iterator@V?$_Vector_val@U?$_Simple_types@V?$basic_string@DU?$char_traits@D@std@@V?$allocator@D@2@@std@@@std@@@std@@@std@@QBE_NABV01@@Z 00421f50 f i Map.obj
 0001:00020fa0       ??A?$vector@UCoordinate@@V?$allocator@UCoordinate@@@std@@@std@@QAEAAUCoordinate@@I@Z 00421fa0 f i Map.obj
 0001:00020fd0       ??Bsentry@?$basic_istream@DU?$char_traits@D@std@@@std@@QBE_NXZ 00421fd0 f i Map.obj
 0001:00020ff0       ??C?$_Tree_iterator@V?$_Tree_val@U?$_Tree_simple_types@U?$pair@QAUMove@@PAU1@@std@@@std@@@std@@@std@@QBEPAU?$pair@QAUMove@@PAU1@@1@XZ 00421ff0 f i Map.obj
 0001:00021020       ??D?$_List_const_iterator@V?$_List_val@U?$_List_simple_types@PAUMove@@@std@@@std@@@std@@QBEABQAUMove@@XZ 00422020 f i Map.obj
 0001:00021050       ??D?$_List_iterator@V?$_List_val@U?$_List_simple_types@PAUMove@@@std@@@std@@@std@@QBEAAPAUMove@@XZ 00422050 f i Map.obj
 0001:00021080       ??D?$_String_const_iterator@V?$_String_val@U?$_Simple_types@D@std@@@std@@@std@@QBEABDXZ 00422080 f i Map.obj
 0001:000210a0       ??D?$_String_iterator@V?$_String_val@U?$_Simple_types@D@std@@@std@@@std@@QBEAADXZ 004220a0 f i Map.obj
 0001:000210d0       ??D?$_Tree_const_iterator@V?$_Tree_val@U?$_Tree_simple_types@U?$pair@QAUMove@@PAU1@@std@@@std@@@std@@@std@@QBEABU?$pair@QAUMove@@PAU1@@1@XZ 004220d0 f i Map.obj
 0001:00021100       ??D?$_Tree_iterator@V?$_Tree_val@U?$_Tree_simple_types@U?$pair@QAUMove@@PAU1@@std@@@std@@@std@@@std@@QBEAAU?$pair@QAUMove@@PAU1@@1@XZ 00422100 f i Map.obj
 0001:00021130       ??D?$_Vector_const_iterator@V?$_Vector_val@U?$_Simple_types@V?$basic_string@DU?$char_traits@D@std@@V?$allocator@D@2@@std@@@std@@@std@@@std@@QBEABV?$basic_string@DU?$char_traits@D@std@@V?$allocator@D@2@@1@XZ 00422130 f i Map.obj
 0001:00021150       ??D?$_Vector_iterator@V?$_Vector_val@U?$_Simple_types@V?$basic_string@DU?$char_traits@D@std@@V?$allocator@D@2@@std@@@std@@@std@@@std@@QBEAAV?$basic_string@DU?$char_traits@D@std@@V?$allocator@D@2@@1@XZ 00422150 f i Map.obj
 0001:00021180       ??E?$_List_const_iterator@V?$_List_val@U?$_List_simple_types@PAUMove@@@std@@@std@@@std@@QAE?AV01@H@Z 00422180 f i Map.obj
 0001:000211c0       ??E?$_List_const_iterator@V?$_List_val@U?$_List_simple_types@PAUMove@@@std@@@std@@@std@@QAEAAV01@XZ 004221c0 f i Map.obj
 0001:00021200       ??E?$_List_iterator@V?$_List_val@U?$_List_simple_types@PAUMove@@@std@@@std@@@std@@QAE?AV01@H@Z 00422200 f i Map.obj
 0001:00021240       ??E?$_List_iterator@V?$_List_val@U?$_List_simple_types@PAUMove@@@std@@@std@@@std@@QAEAAV01@XZ 00422240 f i Map.obj
 0001:00021270       ??E?$_Tree_const_iterator@V?$_Tree_val@U?$_Tree_simple_types@U?$pair@QAUMove@@PAU1@@std@@@std@@@std@@@std@@QAE?AV01@H@Z 00422270 f i Map.obj
 0001:000212b0       ??E?$_Tree_const_iterator@V?$_Tree_val@U?$_Tree_simple_types@U?$pair@QAUMove@@PAU1@@std@@@std@@@std@@@std@@QAEAAV01@XZ 004222b0 f i Map.obj
 0001:000212e0       ??E?$_Tree_unchecked_const_iterator@V?$_Tree_val@U?$_Tree_simple_types@U?$pair@QAUMove@@PAU1@@std@@@std@@@std@@U_Iterator_base0@2@@std@@QAEAAV01@XZ 004222e0 f i Map.obj
 0001:000213d0       ??E?$_Vector_const_iterator@V?$_Vector_val@U?$_Simple_types@V?$basic_string@DU?$char_traits@D@std@@V?$allocator@D@2@@std@@@std@@@std@@@std@@QAEAAV01@XZ 004223d0 f i Map.obj
 0001:00021400       ??E?$_Vector_iterator@V?$_Vector_val@U?$_Simple_types@V?$basic_string@DU?$char_traits@D@std@@V?$allocator@D@2@@std@@@std@@@std@@@std@@QAEAAV01@XZ 00422400 f i Map.obj
 0001:00021430       ??F?$_Tree_const_iterator@V?$_Tree_val@U?$_Tree_simple_types@U?$pair@QAUMove@@PAU1@@std@@@std@@@std@@@std@@QAEAAV01@XZ 00422430 f i Map.obj
 0001:00021460       ??F?$_Tree_iterator@V?$_Tree_val@U?$_Tree_simple_types@U?$pair@QAUMove@@PAU1@@std@@@std@@@std@@@std@@QAEAAV01@XZ 00422460 f i Map.obj
 0001:00021490       ??F?$_Tree_unchecked_const_iterator@V?$_Tree_val@U?$_Tree_simple_types@U?$pair@QAUMove@@PAU1@@std@@@std@@@std@@U_Iterator_base0@2@@std@@QAEAAV01@XZ 00422490 f i Map.obj
 0001:000215c0       ??R?$less@PAUMove@@@std@@QBE_NABQAUMove@@0@Z 004225c0 f i Map.obj
 0001:00021610       ??_D?$basic_ifstream@DU?$char_traits@D@std@@@std@@QAEXXZ 00422610 f i Map.obj
 0001:00021644       ??_E?$basic_ifstream@DU?$char_traits@D@std@@@std@@$4PPPPPPPM@A@AEPAXI@Z 00422644 f i Map.obj
 0001:00021650       ??_E?$basic_filebuf@DU?$char_traits@D@std@@@std@@UAEPAXI@Z 00422650 f i Map.obj
 0001:00021650       ??_G?$basic_filebuf@DU?$char_traits@D@std@@@std@@UAEPAXI@Z 00422650 f i Map.obj
 0001:000216a0       ??_E?$basic_ifstream@DU?$char_traits@D@std@@@std@@UAEPAXI@Z 004226a0 f i Map.obj
 0001:000216a0       ??_G?$basic_ifstream@DU?$char_traits@D@std@@@std@@UAEPAXI@Z 004226a0 f i Map.obj
 0001:000216f0       ??_Elogic_error@std@@UAEPAXI@Z 004226f0 f i Map.obj
 0001:000216f0       ??_Glogic_error@std@@UAEPAXI@Z 004226f0 f i Map.obj
 0001:00021740       ??_Eout_of_range@std@@UAEPAXI@Z 00422740 f i Map.obj
 0001:00021740       ??_Gout_of_range@std@@UAEPAXI@Z 00422740 f i Map.obj
 0001:00021790       ?Get@Map@@QBEHHH@Z         00422790 f   Map.obj
 0001:00021800       ?GetHeight@Map@@QAEHXZ     00422800 f   Map.obj
 0001:00021820       ?GetWidth@Map@@QAEHXZ      00422820 f   Map.obj
 0001:00021840       ?IsMud@Map@@QBE_NHH@Z      00422840 f   Map.obj
 0001:00021890       ?IsObstacle@Map@@QBE_NHH@Z 00422890 f   Map.obj
 0001:00021900       ?IsPointCollision@Map@@QAE_NHH@Z 00422900 f   Map.obj
 0001:00021ac0       ?IsPolygonCollision@Map@@QAE_NHQBN0@Z 00422ac0 f   Map.obj
 0001:00021b40       ?IsValidCoordinate@Map@@QBE_NHH@Z 00422b40 f   Map.obj
 0001:00021b90       ?LoadMap@Map@@QAEXPBD@Z    00422b90 f   Map.obj
 0001:00021fb0       ?ReloadTileManager@Map@@AAEXXZ 00422fb0 f   Map.obj
 0001:00022050       ?Set@Map@@QAEXHHH@Z        00423050 f   Map.obj
 0001:000220d0       ?SetSize@TileManager@@QAEXHH@Z 004230d0 f i Map.obj
 0001:00022180       ?SetValue@TileManager@@QAEXHHH@Z 00423180 f i Map.obj
 0001:000221c0       ?SpreadMud@Map@@QAEXXZ     004231c0 f   Map.obj
 0001:00022650       ?_Assign_rv@?$list@UCoordinate@@V?$allocator@UCoordinate@@@std@@@std@@QAEX$$QAV12@@Z 00423650 f i Map.obj
 0001:000226b0       ?_Buyheadnode@?$_List_alloc@$0A@U?$_List_base_types@PAUMove@@V?$allocator@PAUMove@@@std@@@std@@@std@@QAEPAU?$_List_node@PAUMove@@PAX@2@XZ 004236b0 f i Map.obj
 0001:000226e0       ?_Buyheadnode@?$_List_alloc@$0A@U?$_List_base_types@UCoordinate@@V?$allocator@UCoordinate@@@std@@@std@@@std@@QAEPAU?$_List_node@UCoordinate@@PAX@2@XZ 004236e0 f i Map.obj
 0001:00022710       ?_Buyheadnode@?$_Tree_alloc@$0A@U?$_Tree_base_types@U?$pair@QAUMove@@PAU1@@std@@V?$allocator@U?$pair@QAUMove@@PAU1@@std@@@2@@std@@@std@@QAEPAU?$_Tree_node@U?$pair@QAUMove@@PAU1@@std@@PAX@2@XZ 00423710 f i Map.obj
 0001:000228d0       ?_Buynode0@?$_List_alloc@$0A@U?$_List_base_types@PAUMove@@V?$allocator@PAUMove@@@std@@@std@@@std@@QAEPAU?$_List_node@PAUMove@@PAX@2@PAU32@0@Z 004238d0 f i Map.obj
 0001:00022a40       ?_Buynode0@?$_List_alloc@$0A@U?$_List_base_types@UCoordinate@@V?$allocator@UCoordinate@@@std@@@std@@@std@@QAEPAU?$_List_node@UCoordinate@@PAX@2@PAU32@0@Z 00423a40 f i Map.obj
 0001:00022bb0       ?_Buynode0@?$_Tree_buy@U?$pair@QAUMove@@PAU1@@std@@V?$allocator@U?$pair@QAUMove@@PAU1@@std@@@2@@std@@QAEPAU?$_Tree_node@U?$pair@QAUMove@@PAU1@@std@@PAX@2@XZ 00423bb0 f i Map.obj
 0001:00022d50       ?_Color@?$_Tree_val@U?$_Tree_simple_types@U?$pair@QAUMove@@PAU1@@std@@@std@@@std@@SAAADPAU?$_Tree_node@U?$pair@QAUMove@@PAU1@@std@@PAX@2@@Z 00423d50 f i Map.obj
 0001:00022d70       ?_Compat@?$_Vector_const_iterator@V?$_Vector_val@U?$_Simple_types@V?$basic_string@DU?$char_traits@D@std@@V?$allocator@D@2@@std@@@std@@@std@@@std@@QBEXABV12@@Z 00423d70 f i Map.obj
 0001:00022d90       ?_Destroy@?$vector@UCoordinate@@V?$allocator@UCoordinate@@@std@@@std@@IAEXPAUCoordinate@@0@Z 00423d90 f i Map.obj
 0001:00022de0       ?_Destroy_if_not_nil@?$_Tree@V?$_Tmap_traits@PAUMove@@PAU1@U?$less@PAUMove@@@std@@V?$allocator@U?$pair@QAUMove@@PAU1@@std@@@3@$0A@@std@@@std@@IAEXPAU?$_Tree_node@U?$pair@QAUMove@@PAU1@@std@@PAX@2@@Z 00423de0 f i Map.obj
 0001:00022e50       ?_Endwrite@?$basic_filebuf@DU?$char_traits@D@std@@@std@@IAE_NXZ 00423e50 f i Map.obj
 0001:00023110       ?_Eqrange@?$_Tree@V?$_Tmap_traits@PAUMove@@PAU1@U?$less@PAUMove@@@std@@V?$allocator@U?$pair@QAUMove@@PAU1@@std@@@3@$0A@@std@@@std@@IBE?AU?$pair@V?$_Tree_const_iterator@V?$_Tree_val@U?$_Tree_simple_types@U?$pair@QAUMove@@PAU1@@std@@@std@@@std@@@std@@V12@@2@ABQAUMove@@@Z 00424110 f i Map.obj
 0001:00023340       ?_Erase@?$_Tree@V?$_Tmap_traits@PAUMove@@PAU1@U?$less@PAUMove@@@std@@V?$allocator@U?$pair@QAUMove@@PAU1@@std@@@3@$0A@@std@@@std@@IAEXPAU?$_Tree_node@U?$pair@QAUMove@@PAU1@@std@@PAX@2@@Z 00424340 f i Map.obj
 0001:00023410       ?_Freeheadnode@?$_List_alloc@$0A@U?$_List_base_types@PAUMove@@V?$allocator@PAUMove@@@std@@@std@@@std@@QAEXPAU?$_List_node@PAUMove@@PAX@2@@Z 00424410 f i Map.obj
 0001:000234b0       ?_Freeheadnode@?$_List_alloc@$0A@U?$_List_base_types@UCoordinate@@V?$allocator@UCoordinate@@@std@@@std@@@std@@QAEXPAU?$_List_node@UCoordinate@@PAX@2@@Z 004244b0 f i Map.obj
 0001:00023550       ?_Freeheadnode@?$_Tree_alloc@$0A@U?$_Tree_base_types@U?$pair@QAUMove@@PAU1@@std@@V?$allocator@U?$pair@QAUMove@@PAU1@@std@@@2@@std@@@std@@QAEXPAU?$_Tree_node@U?$pair@QAUMove@@PAU1@@std@@PAX@2@@Z 00424550 f i Map.obj
 0001:00023630       ?_Freenode0@?$_Tree_buy@U?$pair@QAUMove@@PAU1@@std@@V?$allocator@U?$pair@QAUMove@@PAU1@@std@@@2@@std@@QAEXPAU?$_Tree_node@U?$pair@QAUMove@@PAU1@@std@@PAX@2@@Z 00424630 f i Map.obj
 0001:00023710       ?_Freenode@?$_List_buy@PAUMove@@V?$allocator@PAUMove@@@std@@@std@@QAEXPAU?$_List_node@PAUMove@@PAX@2@@Z 00424710 f i Map.obj
 0001:000237f0       ?_Freenode@?$_List_buy@UCoordinate@@V?$allocator@UCoordinate@@@std@@@std@@QAEXPAU?$_List_node@UCoordinate@@PAX@2@@Z 004247f0 f i Map.obj
 0001:000238d0       ?_Getal@?$_List_alloc@$0A@U?$_List_base_types@PAUMove@@V?$allocator@PAUMove@@@std@@@std@@@std@@QBE?AU?$_Wrap_alloc@V?$allocator@U?$_List_node@PAUMove@@PAX@std@@@std@@@2@XZ 004248d0 f i Map.obj
 0001:00023900       ?_Getal@?$_List_alloc@$0A@U?$_List_base_types@UCoordinate@@V?$allocator@UCoordinate@@@std@@@std@@@std@@QBE?AU?$_Wrap_alloc@V?$allocator@U?$_List_node@UCoordinate@@PAX@std@@@std@@@2@XZ 00424900 f i Map.obj
 0001:00023930       ?_Getal@?$_Tree_alloc@$0A@U?$_Tree_base_types@U?$pair@QAUMove@@PAU1@@std@@V?$allocator@U?$pair@QAUMove@@PAU1@@std@@@2@@std@@@std@@QBE?AU?$_Wrap_alloc@V?$allocator@U?$_Tree_node@U?$pair@QAUMove@@PAU1@@std@@PAX@std@@@std@@@2@XZ 00424930 f i Map.obj
 0001:00023960       ?_Getal@?$_Vector_alloc@$0A@U?$_Vec_base_types@UCoordinate@@V?$allocator@UCoordinate@@@std@@@std@@@std@@QBE?AU?$_Wrap_alloc@V?$allocator@UCoordinate@@@std@@@2@XZ 00424960 f i Map.obj
 0001:00023990       ?_Getcomp@?$_Tree_comp@$0A@V?$_Tmap_traits@PAUMove@@PAU1@U?$less@PAUMove@@@std@@V?$allocator@U?$pair@QAUMove@@PAU1@@std@@@3@$0A@@std@@@std@@QBE?AU?$less@PAUMove@@@2@XZ 00424990 f i Map.obj
 0001:000239b0       ?_Getfacet@locale@std@@QBEPBVfacet@12@I@Z 004249b0 f i Map.obj
 0001:00023a60       ?_Grow_to@?$vector@UCoordinate@@V?$allocator@UCoordinate@@@std@@@std@@IBEII@Z 00424a60 f i Map.obj
 0001:00023ae0       ?_Incsize@?$list@PAUMove@@V?$allocator@PAUMove@@@std@@@std@@QAEXI@Z 00424ae0 f i Map.obj
 0001:00023b40       ?_Incsize@?$list@UCoordinate@@V?$allocator@UCoordinate@@@std@@@std@@QAEXI@Z 00424b40 f i Map.obj
 0001:00023ba0       ?_Init@?$basic_filebuf@DU?$char_traits@D@std@@@std@@IAEXPAU_iobuf@@W4_Initfl@12@@Z 00424ba0 f i Map.obj
 0001:00023c90       ?_Initcvt@?$basic_filebuf@DU?$char_traits@D@std@@@std@@IAEXPBV?$codecvt@DDH@2@@Z 00424c90 f i Map.obj
 0001:00023cf0       ?_Inside@?$vector@UCoordinate@@V?$allocator@UCoordinate@@@std@@@std@@IBE_NPBUCoordinate@@@Z 00424cf0 f i Map.obj
 0001:00023d40       ?_Isnil@?$_Tree_val@U?$_Tree_simple_types@U?$pair@QAUMove@@PAU1@@std@@@std@@@std@@SAAADPAU?$_Tree_node@U?$pair@QAUMove@@PAU1@@std@@PAX@2@@Z 00424d40 f i Map.obj
 0001:00023d60       ?_Key@?$_Tree@V?$_Tmap_traits@PAUMove@@PAU1@U?$less@PAUMove@@@std@@V?$allocator@U?$pair@QAUMove@@PAU1@@std@@@3@$0A@@std@@@std@@IBEABQAUMove@@PAU?$_Tree_node@U?$pair@QAUMove@@PAU1@@std@@PAX@2@@Z 00424d60 f i Map.obj
 0001:00023da0       ?_Kfn@?$_Tree@V?$_Tmap_traits@PAUMove@@PAU1@U?$less@PAUMove@@@std@@V?$allocator@U?$pair@QAUMove@@PAU1@@std@@@3@$0A@@std@@@std@@IBEABQAUMove@@ABU?$pair@QAUMove@@PAU1@@2@@Z 00424da0 f i Map.obj
 0001:00023dd0       ?_Lbound@?$_Tree@V?$_Tmap_traits@PAUMove@@PAU1@U?$less@PAUMove@@@std@@V?$allocator@U?$pair@QAUMove@@PAU1@@std@@@3@$0A@@std@@@std@@IAEPAU?$_Tree_node@U?$pair@QAUMove@@PAU1@@std@@PAX@2@ABQAUMove@@@Z 00424dd0 f i Map.obj
 0001:00023e90       ?_Left@?$_Tree_val@U?$_Tree_simple_types@U?$pair@QAUMove@@PAU1@@std@@@std@@@std@@SAAAPAU?$_Tree_node@U?$pair@QAUMove@@PAU1@@std@@PAX@2@PAU32@@Z 00424e90 f i Map.obj
 0001:00023eb0       ?_Lmost@?$_Tree@V?$_Tmap_traits@PAUMove@@PAU1@U?$less@PAUMove@@@std@@V?$allocator@U?$pair@QAUMove@@PAU1@@std@@@3@$0A@@std@@@std@@IBEAAPAU?$_Tree_node@U?$pair@QAUMove@@PAU1@@std@@PAX@2@XZ 00424eb0 f i Map.obj
 0001:00023ee0       ?_Lock@?$basic_filebuf@DU?$char_traits@D@std@@@std@@UAEXXZ 00424ee0 f i Map.obj
 0001:00023f20       ?_Lrotate@?$_Tree@V?$_Tmap_traits@PAUMove@@PAU1@U?$less@PAUMove@@@std@@V?$allocator@U?$pair@QAUMove@@PAU1@@std@@@3@$0A@@std@@@std@@IAEXPAU?$_Tree_node@U?$pair@QAUMove@@PAU1@@std@@PAX@2@@Z 00424f20 f i Map.obj
 0001:000240b0       ?_Make_iter@?$list@PAUMove@@V?$allocator@PAUMove@@@std@@@std@@QBE?AV?$_List_iterator@V?$_List_val@U?$_List_simple_types@PAUMove@@@std@@@std@@@2@V?$_List_const_iterator@V?$_List_val@U?$_List_simple_types@PAUMove@@@std@@@std@@@2@@Z 004250b0 f i Map.obj
 0001:000240f0       ?_Max@?$_Tree_val@U?$_Tree_simple_types@U?$pair@QAUMove@@PAU1@@std@@@std@@@std@@SAPAU?$_Tree_node@U?$pair@QAUMove@@PAU1@@std@@PAX@2@PAU32@@Z 004250f0 f i Map.obj
 0001:00024150       ?_Min@?$_Tree_val@U?$_Tree_simple_types@U?$pair@QAUMove@@PAU1@@std@@@std@@@std@@SAPAU?$_Tree_node@U?$pair@QAUMove@@PAU1@@std@@PAX@2@PAU32@@Z 00425150 f i Map.obj
 0001:000241b0       ?_Mynode@?$_List_unchecked_const_iterator@V?$_List_val@U?$_List_simple_types@PAUMove@@@std@@@std@@U_Iterator_base0@2@@std@@QBEPAU?$_List_node@PAUMove@@PAX@2@XZ 004251b0 f i Map.obj
 0001:000241d0       ?_Mynode@?$_List_unchecked_const_iterator@V?$_List_val@U?$_List_simple_types@UCoordinate@@@std@@@std@@U_Iterator_base0@2@@std@@QBEPAU?$_List_node@UCoordinate@@PAX@2@XZ 004251d0 f i Map.obj
 0001:000241f0       ?_Mynode@?$_Tree_unchecked_const_iterator@V?$_Tree_val@U?$_Tree_simple_types@U?$pair@QAUMove@@PAU1@@std@@@std@@@std@@U_Iterator_base0@2@@std@@QBEPAU?$_Tree_node@U?$pair@QAUMove@@PAU1@@std@@PAX@2@XZ 004251f0 f i Map.obj
 0001:00024210       ?_Myval@?$_List_val@U?$_List_simple_types@PAUMove@@@std@@@std@@SAAAPAUMove@@PAU?$_List_node@PAUMove@@PAX@2@@Z 00425210 f i Map.obj
 0001:00024230       ?_Myval@?$_List_val@U?$_List_simple_types@UCoordinate@@@std@@@std@@SAAAUCoordinate@@PAU?$_List_node@UCoordinate@@PAX@2@@Z 00425230 f i Map.obj
 0001:00024250       ?_Myval@?$_Tree_val@U?$_Tree_simple_types@U?$pair@QAUMove@@PAU1@@std@@@std@@@std@@SAAAU?$pair@QAUMove@@PAU1@@2@PAU?$_Tree_node@U?$pair@QAUMove@@PAU1@@std@@PAX@2@@Z 00425250 f i Map.obj
 0001:00024270       ?_Nextnode@?$_List_val@U?$_List_simple_types@PAUMove@@@std@@@std@@SAAAPAU?$_List_node@PAUMove@@PAX@2@PAU32@@Z 00425270 f i Map.obj
 0001:00024290       ?_Nextnode@?$_List_val@U?$_List_simple_types@UCoordinate@@@std@@@std@@SAAAPAU?$_List_node@UCoordinate@@PAX@2@PAU32@@Z 00425290 f i Map.obj
 0001:000242b0       ?_Orphan_range@?$vector@UCoordinate@@V?$allocator@UCoordinate@@@std@@@std@@IBEXPAUCoordinate@@0@Z 004252b0 f i Map.obj
 0001:000242d0       ?_Parent@?$_Tree_val@U?$_Tree_simple_types@U?$pair@QAUMove@@PAU1@@std@@@std@@@std@@SAAAPAU?$_Tree_node@U?$pair@QAUMove@@PAU1@@std@@PAX@2@PAU32@@Z 004252d0 f i Map.obj
 0001:000242f0       ?_Prevnode@?$_List_val@U?$_List_simple_types@PAUMove@@@std@@@std@@SAAAPAU?$_List_node@PAUMove@@PAX@2@PAU32@@Z 004252f0 f i Map.obj
 0001:00024310       ?_Prevnode@?$_List_val@U?$_List_simple_types@UCoordinate@@@std@@@std@@SAAAPAU?$_List_node@UCoordinate@@PAX@2@PAU32@@Z 00425310 f i Map.obj
 0001:00024330       ?_Reallocate@?$vector@UCoordinate@@V?$allocator@UCoordinate@@@std@@@std@@IAEXI@Z 00425330 f i Map.obj
 0001:000244c0       ?_Reserve@?$vector@UCoordinate@@V?$allocator@UCoordinate@@@std@@@std@@IAEXI@Z 004254c0 f i Map.obj
 0001:00024540       ?_Reset_back@?$basic_filebuf@DU?$char_traits@D@std@@@std@@AAEXXZ 00425540 f i Map.obj
 0001:000245a0       ?_Right@?$_Tree_val@U?$_Tree_simple_types@U?$pair@QAUMove@@PAU1@@std@@@std@@@std@@SAAAPAU?$_Tree_node@U?$pair@QAUMove@@PAU1@@std@@PAX@2@PAU32@@Z 004255a0 f i Map.obj
 0001:000245c0       ?_Rmost@?$_Tree@V?$_Tmap_traits@PAUMove@@PAU1@U?$less@PAUMove@@@std@@V?$allocator@U?$pair@QAUMove@@PAU1@@std@@@3@$0A@@std@@@std@@IBEAAPAU?$_Tree_node@U?$pair@QAUMove@@PAU1@@std@@PAX@2@XZ 004255c0 f i Map.obj
 0001:000245f0       ?_Root@?$_Tree@V?$_Tmap_traits@PAUMove@@PAU1@U?$less@PAUMove@@@std@@V?$allocator@U?$pair@QAUMove@@PAU1@@std@@@3@$0A@@std@@@std@@IBEAAPAU?$_Tree_node@U?$pair@QAUMove@@PAU1@@std@@PAX@2@XZ 004255f0 f i Map.obj
 0001:00024620       ?_Rrotate@?$_Tree@V?$_Tmap_traits@PAUMove@@PAU1@U?$less@PAUMove@@@std@@V?$allocator@U?$pair@QAUMove@@PAU1@@std@@@3@$0A@@std@@@std@@IAEXPAU?$_Tree_node@U?$pair@QAUMove@@PAU1@@std@@PAX@2@@Z 00425620 f i Map.obj
 0001:000247b0       ?_Set_back@?$basic_filebuf@DU?$char_traits@D@std@@@std@@AAEXXZ 004257b0 f i Map.obj
 0001:00024830       ?_Tidy@?$_Tree@V?$_Tmap_traits@PAUMove@@PAU1@U?$less@PAUMove@@@std@@V?$allocator@U?$pair@QAUMove@@PAU1@@std@@@3@$0A@@std@@@std@@IAEXXZ 00425830 f i Map.obj
 0001:00024890       ?_Tidy@?$list@PAUMove@@V?$allocator@PAUMove@@@std@@@std@@QAEXXZ 00425890 f i Map.obj
 0001:000248c0       ?_Tidy@?$list@UCoordinate@@V?$allocator@UCoordinate@@@std@@@std@@QAEXXZ 004258c0 f i Map.obj
 0001:000248f0       ?_Tidy@?$vector@UCoordinate@@V?$allocator@UCoordinate@@@std@@@std@@IAEXXZ 004258f0 f i Map.obj
 0001:00024990       ?_Unchecked_begin@?$list@PAUMove@@V?$allocator@PAUMove@@@std@@@std@@QAE?AV?$_List_unchecked_iterator@V?$_List_val@U?$_List_simple_types@PAUMove@@@std@@@std@@@2@XZ 00425990 f i Map.obj
 0001:000249e0       ?_Unchecked_begin@?$list@UCoordinate@@V?$allocator@UCoordinate@@@std@@@std@@QAE?AV?$_List_unchecked_iterator@V?$_List_val@U?$_List_simple_types@UCoordinate@@@std@@@std@@@2@XZ 004259e0 f i Map.obj
 0001:00024a30       ?_Unchecked_end@?$list@PAUMove@@V?$allocator@PAUMove@@@std@@@std@@QAE?AV?$_List_unchecked_iterator@V?$_List_val@U?$_List_simple_types@PAUMove@@@std@@@std@@@2@XZ 00425a30 f i Map.obj
 0001:00024a70       ?_Unchecked_end@?$list@UCoordinate@@V?$allocator@UCoordinate@@@std@@@std@@QAE?AV?$_List_unchecked_iterator@V?$_List_val@U?$_List_simple_types@UCoordinate@@@std@@@std@@@2@XZ 00425a70 f i Map.obj
 0001:00024ab0       ?_Unlinknode@?$list@PAUMove@@V?$allocator@PAUMove@@@std@@@std@@QAEPAU?$_List_node@PAUMove@@PAX@2@V?$_List_const_iterator@V?$_List_val@U?$_List_simple_types@PAUMove@@@std@@@std@@@2@@Z 00425ab0 f i Map.obj
 0001:00024b60       ?_Unlock@?$basic_filebuf@DU?$char_traits@D@std@@@std@@UAEXXZ 00425b60 f i Map.obj
 0001:00024ba0       ?_Unused_capacity@?$vector@UCoordinate@@V?$allocator@UCoordinate@@@std@@@std@@QBEIXZ 00425ba0 f i Map.obj
 0001:00024bd0       ?_Xlen@?$vector@UCoordinate@@V?$allocator@UCoordinate@@@std@@@std@@IBEXXZ 00425bd0 f i Map.obj
 0001:00024c00       ?allocate@?$_Wrap_alloc@V?$allocator@U?$_List_node@PAUMove@@PAX@std@@@std@@@std@@QAEPAU?$_List_node@PAUMove@@PAX@2@I@Z 00425c00 f i Map.obj
 0001:00024c30       ?allocate@?$_Wrap_alloc@V?$allocator@U?$_List_node@UCoordinate@@PAX@std@@@std@@@std@@QAEPAU?$_List_node@UCoordinate@@PAX@2@I@Z 00425c30 f i Map.obj
 0001:00024c60       ?allocate@?$_Wrap_alloc@V?$allocator@U?$_Tree_node@U?$pair@QAUMove@@PAU1@@std@@PAX@std@@@std@@@std@@QAEPAU?$_Tree_node@U?$pair@QAUMove@@PAU1@@std@@PAX@2@I@Z 00425c60 f i Map.obj
 0001:00024c90       ?allocate@?$_Wrap_alloc@V?$allocator@UCoordinate@@@std@@@std@@QAEPAUCoordinate@@I@Z 00425c90 f i Map.obj
 0001:00024cc0       ?allocate@?$allocator@U?$_List_node@PAUMove@@PAX@std@@@std@@QAEPAU?$_List_node@PAUMove@@PAX@2@I@Z 00425cc0 f i Map.obj
 0001:00024cf0       ?allocate@?$allocator@U?$_List_node@UCoordinate@@PAX@std@@@std@@QAEPAU?$_List_node@UCoordinate@@PAX@2@I@Z 00425cf0 f i Map.obj
 0001:00024d20       ?allocate@?$allocator@U?$_Tree_node@U?$pair@QAUMove@@PAU1@@std@@PAX@std@@@std@@QAEPAU?$_Tree_node@U?$pair@QAUMove@@PAU1@@std@@PAX@2@I@Z 00425d20 f i Map.obj
 0001:00024d50       ?allocate@?$allocator@UCoordinate@@@std@@QAEPAUCoordinate@@I@Z 00425d50 f i Map.obj
 0001:00024d80       ?assign@?$basic_string@DU?$char_traits@D@std@@V?$allocator@D@2@@std@@QAEAAV12@ID@Z 00425d80 f i Map.obj
 0001:00024e00       ?begin@?$_Tree@V?$_Tmap_traits@PAUMove@@PAU1@U?$less@PAUMove@@@std@@V?$allocator@U?$pair@QAUMove@@PAU1@@std@@@3@$0A@@std@@@std@@QAE?AV?$_Tree_iterator@V?$_Tree_val@U?$_Tree_simple_types@U?$pair@QAUMove@@PAU1@@std@@@std@@@std@@@2@XZ 00425e00 f i Map.obj
 0001:00024e40       ?begin@?$basic_string@DU?$char_traits@D@std@@V?$allocator@D@2@@std@@QAE?AV?$_String_iterator@V?$_String_val@U?$_Simple_types@D@std@@@std@@@2@XZ 00425e40 f i Map.obj
 0001:00024e80       ?begin@?$list@PAUMove@@V?$allocator@PAUMove@@@std@@@std@@QAE?AV?$_List_iterator@V?$_List_val@U?$_List_simple_types@PAUMove@@@std@@@std@@@2@XZ 00425e80 f i Map.obj
 0001:00024ed0       ?begin@?$vector@V?$basic_string@DU?$char_traits@D@std@@V?$allocator@D@2@@std@@V?$allocator@V?$basic_string@DU?$char_traits@D@std@@V?$allocator@D@2@@std@@@2@@std@@QAE?AV?$_Vector_iterator@V?$_Vector_val@U?$_Simple_types@V?$basic_string@DU?$char_traits@D@std@@V?$allocator@D@2@@std@@@std@@@std@@@2@XZ 00425ed0 f i Map.obj
 0001:00024f10       ?calculatePath@Map@@QBE?AV?$list@UCoordinate@@V?$allocator@UCoordinate@@@std@@@std@@HHHH@Z 00425f10 f   Map.obj
 0001:00025810       ?capacity@?$vector@UCoordinate@@V?$allocator@UCoordinate@@@std@@@std@@QBEIXZ 00426810 f i Map.obj
 0001:00025840       ?clear@?$_Tree@V?$_Tmap_traits@PAUMove@@PAU1@U?$less@PAUMove@@@std@@V?$allocator@U?$pair@QAUMove@@PAU1@@std@@@3@$0A@@std@@@std@@QAEXXZ 00426840 f i Map.obj
 0001:000258c0       ?clear@?$list@PAUMove@@V?$allocator@PAUMove@@@std@@@std@@QAEXXZ 004268c0 f i Map.obj
 0001:00025970       ?clear@?$list@UCoordinate@@V?$allocator@UCoordinate@@@std@@@std@@QAEXXZ 00426970 f i Map.obj
 0001:00025a20       ?close@?$basic_filebuf@DU?$char_traits@D@std@@@std@@QAEPAV12@XZ 00426a20 f i Map.obj
 0001:00025ab0       ?compare@?$char_traits@D@std@@SAHPBD0I@Z 00426ab0 f i Map.obj
 0001:00025b00       ?count@?$_Tree@V?$_Tmap_traits@PAUMove@@PAU1@U?$less@PAUMove@@@std@@V?$allocator@U?$pair@QAUMove@@PAU1@@std@@@3@$0A@@std@@@std@@QBEIABQAUMove@@@Z 00426b00 f i Map.obj
 0001:00025b60       ?deallocate@?$_Wrap_alloc@V?$allocator@U?$_List_node@PAUMove@@PAX@std@@@std@@@std@@QAEXPAU?$_List_node@PAUMove@@PAX@2@I@Z 00426b60 f i Map.obj
 0001:00025b90       ?deallocate@?$_Wrap_alloc@V?$allocator@U?$_List_node@UCoordinate@@PAX@std@@@std@@@std@@QAEXPAU?$_List_node@UCoordinate@@PAX@2@I@Z 00426b90 f i Map.obj
 0001:00025bc0       ?deallocate@?$_Wrap_alloc@V?$allocator@U?$_Tree_node@U?$pair@QAUMove@@PAU1@@std@@PAX@std@@@std@@@std@@QAEXPAU?$_Tree_node@U?$pair@QAUMove@@PAU1@@std@@PAX@2@I@Z 00426bc0 f i Map.obj
 0001:00025bf0       ?deallocate@?$_Wrap_alloc@V?$allocator@UCoordinate@@@std@@@std@@QAEXPAUCoordinate@@I@Z 00426bf0 f i Map.obj
 0001:00025c20       ?deallocate@?$allocator@U?$_List_node@PAUMove@@PAX@std@@@std@@QAEXPAU?$_List_node@PAUMove@@PAX@2@I@Z 00426c20 f i Map.obj
 0001:00025c50       ?deallocate@?$allocator@U?$_List_node@UCoordinate@@PAX@std@@@std@@QAEXPAU?$_List_node@UCoordinate@@PAX@2@I@Z 00426c50 f i Map.obj
 0001:00025c80       ?deallocate@?$allocator@U?$_Tree_node@U?$pair@QAUMove@@PAU1@@std@@PAX@std@@@std@@QAEXPAU?$_Tree_node@U?$pair@QAUMove@@PAU1@@std@@PAX@2@I@Z 00426c80 f i Map.obj
 0001:00025cb0       ?deallocate@?$allocator@UCoordinate@@@std@@QAEXPAUCoordinate@@I@Z 00426cb0 f i Map.obj
 0001:00025ce0       ?empty@?$list@PAUMove@@V?$allocator@PAUMove@@@std@@@std@@QBE_NXZ 00426ce0 f i Map.obj
 0001:00025d20       ?end@?$_Tree@V?$_Tmap_traits@PAUMove@@PAU1@U?$less@PAUMove@@@std@@V?$allocator@U?$pair@QAUMove@@PAU1@@std@@@3@$0A@@std@@@std@@QAE?AV?$_Tree_iterator@V?$_Tree_val@U?$_Tree_simple_types@U?$pair@QAUMove@@PAU1@@std@@@std@@@std@@@2@XZ 00426d20 f i Map.obj
 0001:00025d60       ?end@?$list@PAUMove@@V?$allocator@PAUMove@@@std@@@std@@QAE?AV?$_List_iterator@V?$_List_val@U?$_List_simple_types@PAUMove@@@std@@@std@@@2@XZ 00426d60 f i Map.obj
 0001:00025da0       ?end@?$vector@V?$basic_string@DU?$char_traits@D@std@@V?$allocator@D@2@@std@@V?$allocator@V?$basic_string@DU?$char_traits@D@std@@V?$allocator@D@2@@std@@@2@@std@@QAE?AV?$_Vector_iterator@V?$_Vector_val@U?$_Simple_types@V?$basic_string@DU?$char_traits@D@std@@V?$allocator@D@2@@std@@@std@@@std@@@2@XZ 00426da0 f i Map.obj
 0001:00025de0       ?equal_range@?$_Tree@V?$_Tmap_traits@PAUMove@@PAU1@U?$less@PAUMove@@@std@@V?$allocator@U?$pair@QAUMove@@PAU1@@std@@@3@$0A@@std@@@std@@QBE?AU?$pair@V?$_Tree_const_iterator@V?$_Tree_val@U?$_Tree_simple_types@U?$pair@QAUMove@@PAU1@@std@@@std@@@std@@@std@@V12@@2@ABQAUMove@@@Z 00426de0 f i Map.obj
 0001:00025e20       ?erase@?$_Tree@V?$_Tmap_traits@PAUMove@@PAU1@U?$less@PAUMove@@@std@@V?$allocator@U?$pair@QAUMove@@PAU1@@std@@@3@$0A@@std@@@std@@QAE?AV?$_Tree_iterator@V?$_Tree_val@U?$_Tree_simple_types@U?$pair@QAUMove@@PAU1@@std@@@std@@@std@@@2@V?$_Tree_const_iterator@V?$_Tree_val@U?$_Tree_simple_types@U?$pair@QAUMove@@PAU1@@std@@@std@@@std@@@2@0@Z 00426e20 f i Map.obj
 0001:00025f00       ?erase@?$_Tree@V?$_Tmap_traits@PAUMove@@PAU1@U?$less@PAUMove@@@std@@V?$allocator@U?$pair@QAUMove@@PAU1@@std@@@3@$0A@@std@@@std@@QAE?AV?$_Tree_iterator@V?$_Tree_val@U?$_Tree_simple_types@U?$pair@QAUMove@@PAU1@@std@@@std@@@std@@@2@V?$_Tree_const_iterator@V?$_Tree_val@U?$_Tree_simple_types@U?$pair@QAUMove@@PAU1@@std@@@std@@@std@@@2@@Z 00426f00 f i Map.obj
 0001:00026860       ?erase@?$list@PAUMove@@V?$allocator@PAUMove@@@std@@@std@@QAE?AV?$_List_iterator@V?$_List_val@U?$_List_simple_types@PAUMove@@@std@@@std@@@2@V?$_List_const_iterator@V?$_List_val@U?$_List_simple_types@PAUMove@@@std@@@std@@@2@@Z 00427860 f i Map.obj
 0001:000268d0       ?find@?$_Tree@V?$_Tmap_traits@PAUMove@@PAU1@U?$less@PAUMove@@@std@@V?$allocator@U?$pair@QAUMove@@PAU1@@std@@@3@$0A@@std@@@std@@QAE?AV?$_Tree_iterator@V?$_Tree_val@U?$_Tree_simple_types@U?$pair@QAUMove@@PAU1@@std@@@std@@@std@@@2@ABQAUMove@@@Z 004278d0 f i Map.obj
 0001:000269a0       ?find@?$basic_string@DU?$char_traits@D@std@@V?$allocator@D@2@@std@@QBEIDI@Z 004279a0 f i Map.obj
 0001:000269d0       ?find@?$basic_string@DU?$char_traits@D@std@@V?$allocator@D@2@@std@@QBEIPBDII@Z 004279d0 f i Map.obj
 0001:00026ae0       ?find@?$char_traits@D@std@@SAPBDPBDIABD@Z 00427ae0 f i Map.obj
 0001:00026b30       ?get_allocator@?$basic_string@DU?$char_traits@D@std@@V?$allocator@D@2@@std@@QBE?AV?$allocator@D@2@XZ 00427b30 f i Map.obj
 0001:00026b70       ?imbue@?$basic_filebuf@DU?$char_traits@D@std@@@std@@MAEXABVlocale@2@@Z 00427b70 f i Map.obj
 0001:00026bb0       ?lower_bound@?$_Tree@V?$_Tmap_traits@PAUMove@@PAU1@U?$less@PAUMove@@@std@@V?$allocator@U?$pair@QAUMove@@PAU1@@std@@@3@$0A@@std@@@std@@QAE?AV?$_Tree_iterator@V?$_Tree_val@U?$_Tree_simple_types@U?$pair@QAUMove@@PAU1@@std@@@std@@@std@@@2@ABQAUMove@@@Z 00427bb0 f i Map.obj
 0001:00026bf0       ?max_size@?$_Tree@V?$_Tmap_traits@PAUMove@@PAU1@U?$less@PAUMove@@@std@@V?$allocator@U?$pair@QAUMove@@PAU1@@std@@@3@$0A@@std@@@std@@QBEIXZ 00427bf0 f i Map.obj
 0001:00026c20       ?max_size@?$_Wrap_alloc@V?$allocator@U?$_List_node@PAUMove@@PAX@std@@@std@@@std@@QBEIXZ 00427c20 f i Map.obj
 0001:00026c50       ?max_size@?$_Wrap_alloc@V?$allocator@U?$_List_node@UCoordinate@@PAX@std@@@std@@@std@@QBEIXZ 00427c50 f i Map.obj
 0001:00026c80       ?max_size@?$_Wrap_alloc@V?$allocator@U?$_Tree_node@U?$pair@QAUMove@@PAU1@@std@@PAX@std@@@std@@@std@@QBEIXZ 00427c80 f i Map.obj
 0001:00026cb0       ?max_size@?$_Wrap_alloc@V?$allocator@UCoordinate@@@std@@@std@@QBEIXZ 00427cb0 f i Map.obj
 0001:00026ce0       ?max_size@?$allocator@U?$_List_node@PAUMove@@PAX@std@@@std@@QBEIXZ 00427ce0 f i Map.obj
 0001:00026d00       ?max_size@?$allocator@U?$_List_node@UCoordinate@@PAX@std@@@std@@QBEIXZ 00427d00 f i Map.obj
 0001:00026d20       ?max_size@?$allocator@U?$_Tree_node@U?$pair@QAUMove@@PAU1@@std@@PAX@std@@@std@@QBEIXZ 00427d20 f i Map.obj
 0001:00026d40       ?max_size@?$allocator@UCoordinate@@@std@@QBEIXZ 00427d40 f i Map.obj
 0001:00026d60       ?max_size@?$allocator_traits@V?$allocator@U?$_List_node@PAUMove@@PAX@std@@@std@@@std@@SAIABV?$allocator@U?$_List_node@PAUMove@@PAX@std@@@2@@Z 00427d60 f i Map.obj
 0001:00026d80       ?max_size@?$allocator_traits@V?$allocator@U?$_List_node@UCoordinate@@PAX@std@@@std@@@std@@SAIABV?$allocator@U?$_List_node@UCoordinate@@PAX@std@@@2@@Z 00427d80 f i Map.obj
 0001:00026da0       ?max_size@?$allocator_traits@V?$allocator@U?$_Tree_node@U?$pair@QAUMove@@PAU1@@std@@PAX@std@@@std@@@std@@SAIABV?$allocator@U?$_Tree_node@U?$pair@QAUMove@@PAU1@@std@@PAX@std@@@2@@Z 00427da0 f i Map.obj
 0001:00026dc0       ?max_size@?$allocator_traits@V?$allocator@UCoordinate@@@std@@@std@@SAIABV?$allocator@UCoordinate@@@2@@Z 00427dc0 f i Map.obj
 0001:00026de0       ?max_size@?$list@PAUMove@@V?$allocator@PAUMove@@@std@@@std@@QBEIXZ 00427de0 f i Map.obj
 0001:00026e10       ?max_size@?$list@UCoordinate@@V?$allocator@UCoordinate@@@std@@@std@@QBEIXZ 00427e10 f i Map.obj
 0001:00026e40       ?max_size@?$vector@UCoordinate@@V?$allocator@UCoordinate@@@std@@@std@@QBEIXZ 00427e40 f i Map.obj
 0001:00026e70       ?open@?$basic_filebuf@DU?$char_traits@D@std@@@std@@QAEPAV12@PBDHH@Z 00427e70 f i Map.obj
 0001:00026f60       ?overflow@?$basic_filebuf@DU?$char_traits@D@std@@@std@@MAEHH@Z 00427f60 f i Map.obj
 0001:000273b0       ?pbackfail@?$basic_filebuf@DU?$char_traits@D@std@@@std@@MAEHH@Z 004283b0 f i Map.obj
 0001:00027560       ?pointer_to@?$pointer_traits@PAU?$pair@QAUMove@@PAU1@@std@@@std@@SAPAU?$pair@QAUMove@@PAU1@@2@AAU32@@Z 00428560 f i Map.obj
 0001:00027590       ?push_back@?$list@PAUMove@@V?$allocator@PAUMove@@@std@@@std@@QAEXABQAUMove@@@Z 00428590 f i Map.obj
 0001:000275e0       ?push_back@?$list@UCoordinate@@V?$allocator@UCoordinate@@@std@@@std@@QAEX$$QAUCoordinate@@@Z 004285e0 f i Map.obj
 0001:00027630       ?push_back@?$vector@UCoordinate@@V?$allocator@UCoordinate@@@std@@@std@@QAEX$$QAUCoordinate@@@Z 00428630 f i Map.obj
 0001:000277a0       ?push_front@?$list@PAUMove@@V?$allocator@PAUMove@@@std@@@std@@QAEX$$QAPAUMove@@@Z 004287a0 f i Map.obj
 0001:000277f0       ?push_front@?$list@PAUMove@@V?$allocator@PAUMove@@@std@@@std@@QAEXABQAUMove@@@Z 004287f0 f i Map.obj
 0001:00027840       ?push_front@?$list@UCoordinate@@V?$allocator@UCoordinate@@@std@@@std@@QAEX$$QAUCoordinate@@@Z 00428840 f i Map.obj
 0001:00027890       ?remove@?$list@PAUMove@@V?$allocator@PAUMove@@@std@@@std@@QAEXABQAUMove@@@Z 00428890 f i Map.obj
 0001:000279c0       ?seekoff@?$basic_filebuf@DU?$char_traits@D@std@@@std@@MAE?AV?$fpos@H@2@_JHH@Z 004289c0 f i Map.obj
 0001:00027ae0       ?seekpos@?$basic_filebuf@DU?$char_traits@D@std@@@std@@MAE?AV?$fpos@H@2@V32@H@Z 00428ae0 f i Map.obj
 0001:00027c10       ?seekpos@?$fpos@H@std@@QBE_JXZ 00428c10 f i Map.obj
 0001:00027c40       ?setbuf@?$basic_filebuf@DU?$char_traits@D@std@@@std@@MAEPAV?$basic_streambuf@DU?$char_traits@D@std@@@2@PAD_J@Z 00428c40 f i Map.obj
 0001:00027ce0       ?size@?$vector@UCoordinate@@V?$allocator@UCoordinate@@@std@@@std@@QBEIXZ 00428ce0 f i Map.obj
 0001:00027d10       ?state@?$fpos@H@std@@QBEHXZ 00428d10 f i Map.obj
 0001:00027d30       ?substr@?$basic_string@DU?$char_traits@D@std@@V?$allocator@D@2@@std@@QBE?AV12@II@Z 00428d30 f i Map.obj
 0001:00027d90       ?sync@?$basic_filebuf@DU?$char_traits@D@std@@@std@@MAEHXZ 00428d90 f i Map.obj
 0001:00027e30       ?uflow@?$basic_filebuf@DU?$char_traits@D@std@@@std@@MAEHXZ 00428e30 f i Map.obj
 0001:00028230       ?underflow@?$basic_filebuf@DU?$char_traits@D@std@@@std@@MAEHXZ 00429230 f i Map.obj
 0001:000282f0       ??0MenuState@@QAE@PAVPsyja2Engine@@@Z 004292f0 f   MenuState.obj
 0001:00028330       ??1MenuState@@QAE@XZ       00429330 f   MenuState.obj
 0001:00028360       ??A?$vector@V?$basic_string@DU?$char_traits@D@std@@V?$allocator@D@2@@std@@V?$allocator@V?$basic_string@DU?$char_traits@D@std@@V?$allocator@D@2@@std@@@2@@std@@QAEAAV?$basic_string@DU?$char_traits@D@std@@V?$allocator@D@2@@1@I@Z 00429360 f i MenuState.obj
 0001:00028390       ?DrawStrings@MenuState@@UAEXXZ 00429390 f   MenuState.obj
 0001:00028440       ?GameAction@MenuState@@UAEXXZ 00429440 f   MenuState.obj
 0001:00028630       ?GetMenu@SpriteManager@@QAEPAVImageData@@XZ 00429630 f i MenuState.obj
 0001:00028650       ?InitialiseObjects@MenuState@@UAEHXZ 00429650 f   MenuState.obj
 0001:000287f0       ?MouseDown@MenuState@@UAEXHHH@Z 004297f0 f   MenuState.obj
 0001:00028810       ?MouseMoved@MenuState@@UAEXHH@Z 00429810 f   MenuState.obj
 0001:00028830       ?NextLevel@Psyja2Engine@@QAEHXZ 00429830 f i MenuState.obj
 0001:000288a0       ?SetupBackgroundBuffer@MenuState@@UAEXXZ 004298a0 f   MenuState.obj
 0001:00028910       ??0NormalZombieObject@@QAE@PAVPlayState@@HHH@Z 00429910 f   NormalZombieObject.obj
 0001:000289b0       ??1NormalZombieObject@@UAE@XZ 004299b0 f   NormalZombieObject.obj
 0001:000289e0       ??_ENormalZombieObject@@UAEPAXI@Z 004299e0 f i NormalZombieObject.obj
 0001:000289e0       ??_GNormalZombieObject@@UAEPAXI@Z 004299e0 f i NormalZombieObject.obj
 0001:00028a30       ?ReachedGoal@NormalZombieObject@@UAEXXZ 00429a30 f   NormalZombieObject.obj
 0001:00028a80       ??0PauseState@@QAE@PAVPsyja2Engine@@PAVPlayState@@@Z 00429a80 f   PauseState.obj
 0001:00028b30       ??1PauseState@@QAE@XZ      00429b30 f   PauseState.obj
 0001:00028b60       ?DrawStrings@PauseState@@UAEXXZ 00429b60 f   PauseState.obj
 0001:00028b90       ?DrawStringsOnTop@PauseState@@UAEXXZ 00429b90 f   PauseState.obj
 0001:00028c60       ?GameAction@PauseState@@UAEXXZ 00429c60 f   PauseState.obj
 0001:00028cb0       ?KeyDown@PauseState@@UAEXH@Z 00429cb0 f   PauseState.obj
 0001:00028cf0       ?SetupBackgroundBuffer@PauseState@@UAEXXZ 00429cf0 f   PauseState.obj
 0001:00028d20       ??$GetAllObjectsOfType@VCollectableObject@@@BaseEngine@@QAE?AV?$vector@PAVCollectableObject@@V?$allocator@PAVCollectableObject@@@std@@@std@@XZ 00429d20 f i PlayerObject.obj
 0001:00028e40       ??$_Allocate@PAVCollectableObject@@@std@@YAPAPAVCollectableObject@@IPAPAV1@@Z 00429e40 f i PlayerObject.obj
 0001:00028ea0       ??$_Destroy_range@U?$_Wrap_alloc@V?$allocator@PAVCollectableObject@@@std@@@std@@@std@@YAXPAPAVCollectableObject@@0AAU?$_Wrap_alloc@V?$allocator@PAVCollectableObject@@@std@@@0@@Z 00429ea0 f i PlayerObject.obj
 0001:00028ef0       ??$_Destroy_range@U?$_Wrap_alloc@V?$allocator@PAVCollectableObject@@@std@@@std@@@std@@YAXPAPAVCollectableObject@@0AAU?$_Wrap_alloc@V?$allocator@PAVCollectableObject@@@std@@@0@U_Scalar_ptr_iterator_tag@0@@Z 00429ef0 f i PlayerObject.obj
 0001:00028f10       ??$_Ptr_cat@PAVCollectableObject@@PAV1@@std@@YA?AU_Scalar_ptr_iterator_tag@0@PAPAVCollectableObject@@0@Z 00429f10 f i PlayerObject.obj
 0001:00028f30       ??$_Rechecked@PAPAVCollectableObject@@PAPAV1@@std@@YAAAPAPAVCollectableObject@@AAPAPAV1@PAPAV1@@Z 00429f30 f i PlayerObject.obj
 0001:00028f60       ??$_Umove@PAPAVCollectableObject@@@?$vector@PAVCollectableObject@@V?$allocator@PAVCollectableObject@@@std@@@std@@IAEPAPAVCollectableObject@@PAPAV2@00@Z 00429f60 f i PlayerObject.obj
 0001:00028fb0       ??$_Unchecked@PAPAVCollectableObject@@@std@@YAPAPAVCollectableObject@@PAPAV1@@Z 00429fb0 f i PlayerObject.obj
 0001:00028fd0       ??$_Uninit_move@PAPAVCollectableObject@@PAPAV1@U?$_Wrap_alloc@V?$allocator@PAVCollectableObject@@@std@@@std@@@std@@YAPAPAVCollectableObject@@PAPAV1@00AAU?$_Wrap_alloc@V?$allocator@PAVCollectableObject@@@std@@@0@@Z 00429fd0 f i PlayerObject.obj
 0001:00029030       ??$_Uninit_move@PAVCollectableObject@@PAV1@PAV1@@std@@YAPAPAVCollectableObject@@PAPAV1@00AAU?$_Wrap_alloc@V?$allocator@PAVCollectableObject@@@std@@@0@0U_Scalar_ptr_iterator_tag@0@@Z 0042a030 f i PlayerObject.obj
 0001:00029080       ??$_Uninitialized_move@PAPAVCollectableObject@@PAPAV1@U?$_Wrap_alloc@V?$allocator@PAVCollectableObject@@@std@@@std@@@std@@YAPAPAVCollectableObject@@PAPAV1@00AAU?$_Wrap_alloc@V?$allocator@PAVCollectableObject@@@std@@@0@@Z 0042a080 f i PlayerObject.obj
 0001:000290f0       ??$_Val_type@PAPAVCollectableObject@@@std@@YAPAPAVCollectableObject@@PAPAV1@@Z 0042a0f0 f i PlayerObject.obj
 0001:00029110       ??$addressof@QAVCollectableObject@@@std@@YAPBQAVCollectableObject@@ABQAV1@@Z 0042a110 f i PlayerObject.obj
 0001:00029130       ??$construct@PAVCollectableObject@@AAPAV1@@?$_Wrap_alloc@V?$allocator@PAVCollectableObject@@@std@@@std@@QAEXPAPAVCollectableObject@@AAPAV2@@Z 0042a130 f i PlayerObject.obj
 0001:00029170       ??$construct@PAVCollectableObject@@AAPAV1@@?$allocator@PAVCollectableObject@@@std@@QAEXPAPAVCollectableObject@@AAPAV2@@Z 0042a170 f i PlayerObject.obj
 0001:00029220       ??$construct@PAVCollectableObject@@AAPAV1@@?$allocator_traits@V?$allocator@PAVCollectableObject@@@std@@@std@@SAXAAV?$allocator@PAVCollectableObject@@@1@PAPAVCollectableObject@@AAPAV3@@Z 0042a220 f i PlayerObject.obj
 0001:00029260       ??$construct@PAVCollectableObject@@ABQAV1@@?$_Wrap_alloc@V?$allocator@PAVCollectableObject@@@std@@@std@@QAEXPAPAVCollectableObject@@ABQAV2@@Z 0042a260 f i PlayerObject.obj
 0001:000292a0       ??$construct@PAVCollectableObject@@ABQAV1@@?$allocator_traits@V?$allocator@PAVCollectableObject@@@std@@@std@@SAXAAV?$allocator@PAVCollectableObject@@@1@PAPAVCollectableObject@@ABQAV3@@Z 0042a2a0 f i PlayerObject.obj
 0001:000292e0       ??$forward@AAPAVCollectableObject@@@std@@YAAAPAVCollectableObject@@AAPAV1@@Z 0042a2e0 f i PlayerObject.obj
 0001:00029300       ??$forward@ABQAVCollectableObject@@@std@@YAABQAVCollectableObject@@ABQAV1@@Z 0042a300 f i PlayerObject.obj
 0001:00029320       ??$forward@V?$vector@PAVCollectableObject@@V?$allocator@PAVCollectableObject@@@std@@@std@@@std@@YA$$QAV?$vector@PAVCollectableObject@@V?$allocator@PAVCollectableObject@@@std@@@0@AAV10@@Z 0042a320 f i PlayerObject.obj
 0001:00029340       ??$maxElement@N@@YANHPAN@Z 0042a340 f i PlayerObject.obj
 0001:000293c0       ??$minElement@N@@YANHPAN@Z 0042a3c0 f i PlayerObject.obj
 0001:00029440       ??0?$_Vector_alloc@$0A@U?$_Vec_base_types@PAVCollectableObject@@V?$allocator@PAVCollectableObject@@@std@@@std@@@std@@QAE@ABV?$allocator@PAVCollectableObject@@@1@@Z 0042a440 f i PlayerObject.obj
 0001:00029470       ??0?$_Vector_val@U?$_Simple_types@PAVCollectableObject@@@std@@@std@@QAE@XZ 0042a470 f i PlayerObject.obj
 0001:000294b0       ??0?$_Wrap_alloc@V?$allocator@PAVCollectableObject@@@std@@@std@@QAE@XZ 0042a4b0 f i PlayerObject.obj
 0001:000294e0       ??0?$allocator@PAVCollectableObject@@@std@@QAE@XZ 0042a4e0 f i PlayerObject.obj
 0001:00029500       ??0?$vector@PAVCollectableObject@@V?$allocator@PAVCollectableObject@@@std@@@std@@QAE@$$QAV01@@Z 0042a500 f i PlayerObject.obj
 0001:00029560       ??0?$vector@PAVCollectableObject@@V?$allocator@PAVCollectableObject@@@std@@@std@@QAE@XZ 0042a560 f i PlayerObject.obj
 0001:00029590       ??0PlayerObject@@QAE@PAVPlayState@@@Z 0042a590 f   PlayerObject.obj
 0001:000296a0       ??1?$vector@PAVCollectableObject@@V?$allocator@PAVCollectableObject@@@std@@@std@@QAE@XZ 0042a6a0 f i PlayerObject.obj
 0001:000296d0       ??1PlayerObject@@UAE@XZ    0042a6d0 f   PlayerObject.obj
 0001:00029700       ??A?$vector@PAVCollectableObject@@V?$allocator@PAVCollectableObject@@@std@@@std@@QAEAAPAVCollectableObject@@I@Z 0042a700 f i PlayerObject.obj
 0001:00029730       ??_EPlayerObject@@UAEPAXI@Z 0042a730 f i PlayerObject.obj
 0001:00029730       ??_GPlayerObject@@UAEPAXI@Z 0042a730 f i PlayerObject.obj
 0001:00029780       ?Damage@PlayerObject@@QAEXN@Z 0042a780 f   PlayerObject.obj
 0001:00029810       ?DetectCollisions@PlayerObject@@AAEXHHNAAH0AAN@Z 0042a810 f   PlayerObject.obj
 0001:0002b180       ?DoUpdate@PlayerObject@@UAEXH@Z 0042c180 f   PlayerObject.obj
 0001:0002b7c0       ?Draw@PlayerObject@@UAEXXZ 0042c7c0 f   PlayerObject.obj
 0001:0002c6a0       ?DrawScreenPolygon@BaseEngine@@QAEXHPAN0I@Z 0042d6a0 f i PlayerObject.obj
 0001:0002c6f0       ?GetHealth@PlayerObject@@QAENXZ 0042d6f0 f   PlayerObject.obj
 0001:0002c710       ?GetXCentre@DisplayableObject@@QBEHXZ 0042d710 f i PlayerObject.obj
 0001:0002c750       ?GetYCentre@DisplayableObject@@QBEHXZ 0042d750 f i PlayerObject.obj
 0001:0002c790       ?SetAngle@PlayerObject@@QAEXN@Z 0042d790 f   PlayerObject.obj
 0001:0002c7d0       ?SetHealth@PlayerObject@@QAEXN@Z 0042d7d0 f   PlayerObject.obj
 0001:0002c800       ?_Assign_rv@?$vector@PAVCollectableObject@@V?$allocator@PAVCollectableObject@@@std@@@std@@QAEX$$QAV12@U?$integral_constant@_N$00@2@@Z 0042d800 f i PlayerObject.obj
 0001:0002c880       ?_Destroy@?$vector@PAVCollectableObject@@V?$allocator@PAVCollectableObject@@@std@@@std@@IAEXPAPAVCollectableObject@@0@Z 0042d880 f i PlayerObject.obj
 0001:0002c8d0       ?_Getal@?$_Vector_alloc@$0A@U?$_Vec_base_types@PAVCollectableObject@@V?$allocator@PAVCollectableObject@@@std@@@std@@@std@@QBE?AU?$_Wrap_alloc@V?$allocator@PAVCollectableObject@@@std@@@2@XZ 0042d8d0 f i PlayerObject.obj
 0001:0002c900       ?_Grow_to@?$vector@PAVCollectableObject@@V?$allocator@PAVCollectableObject@@@std@@@std@@IBEII@Z 0042d900 f i PlayerObject.obj
 0001:0002c980       ?_Inside@?$vector@PAVCollectableObject@@V?$allocator@PAVCollectableObject@@@std@@@std@@IBE_NPBQAVCollectableObject@@@Z 0042d980 f i PlayerObject.obj
 0001:0002c9d0       ?_Orphan_range@?$vector@PAVCollectableObject@@V?$allocator@PAVCollectableObject@@@std@@@std@@IBEXPAPAVCollectableObject@@0@Z 0042d9d0 f i PlayerObject.obj
 0001:0002c9f0       ?_Reallocate@?$vector@PAVCollectableObject@@V?$allocator@PAVCollectableObject@@@std@@@std@@IAEXI@Z 0042d9f0 f i PlayerObject.obj
 0001:0002cb80       ?_Reserve@?$vector@PAVCollectableObject@@V?$allocator@PAVCollectableObject@@@std@@@std@@IAEXI@Z 0042db80 f i PlayerObject.obj
 0001:0002cc00       ?_Tidy@?$vector@PAVCollectableObject@@V?$allocator@PAVCollectableObject@@@std@@@std@@IAEXXZ 0042dc00 f i PlayerObject.obj
 0001:0002cca0       ?_Unused_capacity@?$vector@PAVCollectableObject@@V?$allocator@PAVCollectableObject@@@std@@@std@@QBEIXZ 0042dca0 f i PlayerObject.obj
 0001:0002ccd0       ?_Xlen@?$vector@PAVCollectableObject@@V?$allocator@PAVCollectableObject@@@std@@@std@@IBEXXZ 0042dcd0 f i PlayerObject.obj
 0001:0002cd00       ?allocate@?$_Wrap_alloc@V?$allocator@PAVCollectableObject@@@std@@@std@@QAEPAPAVCollectableObject@@I@Z 0042dd00 f i PlayerObject.obj
 0001:0002cd30       ?allocate@?$allocator@PAVCollectableObject@@@std@@QAEPAPAVCollectableObject@@I@Z 0042dd30 f i PlayerObject.obj
 0001:0002cd60       ?capacity@?$vector@PAVCollectableObject@@V?$allocator@PAVCollectableObject@@@std@@@std@@QBEIXZ 0042dd60 f i PlayerObject.obj
 0001:0002cd90       ?construct@?$allocator@PAVCollectableObject@@@std@@QAEXPAPAVCollectableObject@@ABQAV3@@Z 0042dd90 f i PlayerObject.obj
 0001:0002cdf0       ?deallocate@?$_Wrap_alloc@V?$allocator@PAVCollectableObject@@@std@@@std@@QAEXPAPAVCollectableObject@@I@Z 0042ddf0 f i PlayerObject.obj
 0001:0002ce20       ?deallocate@?$allocator@PAVCollectableObject@@@std@@QAEXPAPAVCollectableObject@@I@Z 0042de20 f i PlayerObject.obj
 0001:0002ce50       ?max_size@?$_Wrap_alloc@V?$allocator@PAVCollectableObject@@@std@@@std@@QBEIXZ 0042de50 f i PlayerObject.obj
 0001:0002ce80       ?max_size@?$allocator@PAVCollectableObject@@@std@@QBEIXZ 0042de80 f i PlayerObject.obj
 0001:0002cea0       ?max_size@?$allocator_traits@V?$allocator@PAVCollectableObject@@@std@@@std@@SAIABV?$allocator@PAVCollectableObject@@@2@@Z 0042dea0 f i PlayerObject.obj
 0001:0002cec0       ?max_size@?$vector@PAVCollectableObject@@V?$allocator@PAVCollectableObject@@@std@@@std@@QBEIXZ 0042dec0 f i PlayerObject.obj
 0001:0002cef0       ?push_back@?$vector@PAVCollectableObject@@V?$allocator@PAVCollectableObject@@@std@@@std@@QAEXABQAVCollectableObject@@@Z 0042def0 f i PlayerObject.obj
 0001:0002d040       ?size@?$vector@PAVCollectableObject@@V?$allocator@PAVCollectableObject@@@std@@@std@@QBEIXZ 0042e040 f i PlayerObject.obj
 0001:0002d070       ??$?0N@?$allocator@PAN@std@@QAE@ABV?$allocator@N@1@@Z 0042e070 f i PlayState.obj
 0001:0002d090       ??$?0PAUCoordinate@@@?$allocator@PAPAVCoordinate@@@std@@QAE@ABV?$allocator@PAVCoordinate@@@1@@Z 0042e090 f i PlayState.obj
 0001:0002d0b0       ??$?0U?$_Wrap_alloc@V?$allocator@N@std@@@std@@@?$_Wrap_alloc@V?$allocator@PAN@std@@@std@@QAE@ABU?$_Wrap_alloc@V?$allocator@N@std@@@1@@Z 0042e0b0 f i PlayState.obj
 0001:0002d0e0       ??$?0U?$_Wrap_alloc@V?$allocator@PAVCoordinate@@@std@@@std@@@?$_Wrap_alloc@V?$allocator@PAPAVCoordinate@@@std@@@std@@QAE@ABU?$_Wrap_alloc@V?$allocator@PAVCoordinate@@@std@@@1@@Z 0042e0e0 f i PlayState.obj
 0001:0002d110       ??$GetAllObjectsOfType@VZombieObject@@@BaseEngine@@QAE?AV?$vector@PAVZombieObject@@V?$allocator@PAVZombieObject@@@std@@@std@@XZ 0042e110 f i PlayState.obj
 0001:0002d230       ??$_Allocate@N@std@@YAPANIPAN@Z 0042e230 f i PlayState.obj
 0001:0002d290       ??$_Allocate@PAN@std@@YAPAPANIPAPAN@Z 0042e290 f i PlayState.obj
 0001:0002d2f0       ??$_Allocate@PAPAUCoordinate@@@std@@YAPAPAPAUCoordinate@@IPAPAPAU1@@Z 0042e2f0 f i PlayState.obj
 0001:0002d350       ??$_Allocate@PAUCoordinate@@@std@@YAPAPAUCoordinate@@IPAPAU1@@Z 0042e350 f i PlayState.obj
 0001:0002d3b0       ??$_Allocate@PAVZombieObject@@@std@@YAPAPAVZombieObject@@IPAPAV1@@Z 0042e3b0 f i PlayState.obj
 0001:0002d410       ??$_Allocate@U_Container_proxy@std@@@std@@YAPAU_Container_proxy@0@IPAU10@@Z 0042e410 f i PlayState.obj
 0001:0002d470       ??$_Destroy_range@U?$_Wrap_alloc@V?$allocator@PAN@std@@@std@@@std@@YAXPAPAN0AAU?$_Wrap_alloc@V?$allocator@PAN@std@@@0@@Z 0042e470 f i PlayState.obj
 0001:0002d4c0       ??$_Destroy_range@U?$_Wrap_alloc@V?$allocator@PAN@std@@@std@@@std@@YAXPAPAN0AAU?$_Wrap_alloc@V?$allocator@PAN@std@@@0@U_Scalar_ptr_iterator_tag@0@@Z 0042e4c0 f i PlayState.obj
 0001:0002d4e0       ??$_Destroy_range@U?$_Wrap_alloc@V?$allocator@PAPAVCoordinate@@@std@@@std@@@std@@YAXPAPAPAUCoordinate@@0AAU?$_Wrap_alloc@V?$allocator@PAPAVCoordinate@@@std@@@0@@Z 0042e4e0 f i PlayState.obj
 0001:0002d530       ??$_Destroy_range@U?$_Wrap_alloc@V?$allocator@PAPAVCoordinate@@@std@@@std@@@std@@YAXPAPAPAUCoordinate@@0AAU?$_Wrap_alloc@V?$allocator@PAPAVCoordinate@@@std@@@0@U_Scalar_ptr_iterator_tag@0@@Z 0042e530 f i PlayState.obj
 0001:0002d550       ??$_Fill_n@PAPANIPAN@std@@YAPAPANPAPANIABQAN@Z 0042e550 f i PlayState.obj
 0001:0002d5a0       ??$_Fill_n@PAPAPAUCoordinate@@IPAPAU1@@std@@YAPAPAPAUCoordinate@@PAPAPAU1@IABQAPAU1@@Z 0042e5a0 f i PlayState.obj
 0001:0002d5f0       ??$_Ptr_cat@PANPAN@std@@YA?AU_Scalar_ptr_iterator_tag@0@PAPAN0@Z 0042e5f0 f i PlayState.obj
 0001:0002d610       ??$_Ptr_cat@PAPAUCoordinate@@PAPAU1@@std@@YA?AU_Scalar_ptr_iterator_tag@0@PAPAPAUCoordinate@@0@Z 0042e610 f i PlayState.obj
 0001:0002d630       ??$_Rechecked@PAPANPAPAN@std@@YAAAPAPANAAPAPANPAPAN@Z 0042e630 f i PlayState.obj
 0001:0002d660       ??$_Rechecked@PAPAPAUCoordinate@@PAPAPAU1@@std@@YAAAPAPAPAUCoordinate@@AAPAPAPAU1@PAPAPAU1@@Z 0042e660 f i PlayState.obj
 0001:0002d690       ??$_Rechecked@PAPAVZombieObject@@PAPAV1@@std@@YAAAPAPAVZombieObject@@AAPAPAV1@PAPAV1@@Z 0042e690 f i PlayState.obj
 0001:0002d6c0       ??$_Umove@PAPAVZombieObject@@@?$vector@PAVZombieObject@@V?$allocator@PAVZombieObject@@@std@@@std@@IAEPAPAVZombieObject@@PAPAV2@00@Z 0042e6c0 f i PlayState.obj
 0001:0002d710       ??$_Unchecked@PAPAN@std@@YAPAPANPAPAN@Z 0042e710 f i PlayState.obj
 0001:0002d730       ??$_Unchecked@PAPAPAUCoordinate@@@std@@YAPAPAPAUCoordinate@@PAPAPAU1@@Z 0042e730 f i PlayState.obj
 0001:0002d750       ??$_Unchecked@PAPAVZombieObject@@@std@@YAPAPAVZombieObject@@PAPAV1@@Z 0042e750 f i PlayState.obj
 0001:0002d770       ??$_Uninit_copy@PANPAN@std@@YAPAPANPAPAN00AAU?$_Wrap_alloc@V?$allocator@PAN@std@@@0@U_Scalar_ptr_iterator_tag@0@@Z 0042e770 f i PlayState.obj
 0001:0002d7c0       ??$_Uninit_copy@PAPANPAPANU?$_Wrap_alloc@V?$allocator@PAN@std@@@std@@@std@@YAPAPANPAPAN00AAU?$_Wrap_alloc@V?$allocator@PAN@std@@@0@@Z 0042e7c0 f i PlayState.obj
 0001:0002d810       ??$_Uninit_copy@PAPAPAUCoordinate@@PAPAPAU1@U?$_Wrap_alloc@V?$allocator@PAPAVCoordinate@@@std@@@std@@@std@@YAPAPAPAUCoordinate@@PAPAPAU1@00AAU?$_Wrap_alloc@V?$allocator@PAPAVCoordinate@@@std@@@0@@Z 0042e810 f i PlayState.obj
 0001:0002d860       ??$_Uninit_copy@PAPAUCoordinate@@PAPAU1@@std@@YAPAPAPAUCoordinate@@PAPAPAU1@00AAU?$_Wrap_alloc@V?$allocator@PAPAVCoordinate@@@std@@@0@U_Scalar_ptr_iterator_tag@0@@Z 0042e860 f i PlayState.obj
 0001:0002d8b0       ??$_Uninit_def_fill_n@PANIPAN@std@@YAXPAPANIAAU?$_Wrap_alloc@V?$allocator@PAN@std@@@0@0U_Scalar_ptr_iterator_tag@0@@Z 0042e8b0 f i PlayState.obj
 0001:0002d8f0       ??$_Uninit_def_fill_n@PAPAUCoordinate@@IPAPAU1@@std@@YAXPAPAPAUCoordinate@@IAAU?$_Wrap_alloc@V?$allocator@PAPAVCoordinate@@@std@@@0@0U_Scalar_ptr_iterator_tag@0@@Z 0042e8f0 f i PlayState.obj
 0001:0002d930       ??$_Uninit_move@PAPAVZombieObject@@PAPAV1@U?$_Wrap_alloc@V?$allocator@PAVZombieObject@@@std@@@std@@@std@@YAPAPAVZombieObject@@PAPAV1@00AAU?$_Wrap_alloc@V?$allocator@PAVZombieObject@@@std@@@0@@Z 0042e930 f i PlayState.obj
 0001:0002d990       ??$_Uninit_move@PAVZombieObject@@PAV1@PAV1@@std@@YAPAPAVZombieObject@@PAPAV1@00AAU?$_Wrap_alloc@V?$allocator@PAVZombieObject@@@std@@@0@0U_Scalar_ptr_iterator_tag@0@@Z 0042e990 f i PlayState.obj
 0001:0002d9e0       ??$_Uninitialized_copy@PAPANPAPANU?$_Wrap_alloc@V?$allocator@PAN@std@@@std@@@std@@YAPAPANPAPAN00AAU?$_Wrap_alloc@V?$allocator@PAN@std@@@0@@Z 0042e9e0 f i PlayState.obj
 0001:0002da50       ??$_Uninitialized_copy@PAPAPAUCoordinate@@PAPAPAU1@U?$_Wrap_alloc@V?$allocator@PAPAVCoordinate@@@std@@@std@@@std@@YAPAPAPAUCoordinate@@PAPAPAU1@00AAU?$_Wrap_alloc@V?$allocator@PAPAVCoordinate@@@std@@@0@@Z 0042ea50 f i PlayState.obj
 0001:0002dac0       ??$_Uninitialized_default_fill_n@PAPANIU?$_Wrap_alloc@V?$allocator@PAN@std@@@std@@@std@@YAXPAPANIAAU?$_Wrap_alloc@V?$allocator@PAN@std@@@0@@Z 0042eac0 f i PlayState.obj
 0001:0002db20       ??$_Uninitialized_default_fill_n@PAPAPAUCoordinate@@IU?$_Wrap_alloc@V?$allocator@PAPAVCoordinate@@@std@@@std@@@std@@YAXPAPAPAUCoordinate@@IAAU?$_Wrap_alloc@V?$allocator@PAPAVCoordinate@@@std@@@0@@Z 0042eb20 f i PlayState.obj
 0001:0002db80       ??$_Uninitialized_move@PAPAVZombieObject@@PAPAV1@U?$_Wrap_alloc@V?$allocator@PAVZombieObject@@@std@@@std@@@std@@YAPAPAVZombieObject@@PAPAV1@00AAU?$_Wrap_alloc@V?$allocator@PAVZombieObject@@@std@@@0@@Z 0042eb80 f i PlayState.obj
 0001:0002dbf0       ??$_Val_type@PAPAN@std@@YAPAPANPAPAN@Z 0042ebf0 f i PlayState.obj
 0001:0002dc10       ??$_Val_type@PAPAPAUCoordinate@@@std@@YAPAPAPAUCoordinate@@PAPAPAU1@@Z 0042ec10 f i PlayState.obj
 0001:0002dc30       ??$_Val_type@PAPAVZombieObject@@@std@@YAPAPAVZombieObject@@PAPAV1@@Z 0042ec30 f i PlayState.obj
 0001:0002dc50       ??$addressof@QAVZombieObject@@@std@@YAPBQAVZombieObject@@ABQAV1@@Z 0042ec50 f i PlayState.obj
 0001:0002dc70       ??$construct@NN@?$_Wrap_alloc@V?$allocator@N@std@@@std@@QAEXPAN$$QAN@Z 0042ec70 f i PlayState.obj
 0001:0002dcb0       ??$construct@NN@?$allocator@N@std@@QAEXPAN$$QAN@Z 0042ecb0 f i PlayState.obj
 0001:0002dd70       ??$construct@NN@?$allocator_traits@V?$allocator@N@std@@@std@@SAXAAV?$allocator@N@1@PAN$$QAN@Z 0042ed70 f i PlayState.obj
 0001:0002ddb0       ??$construct@PAUCoordinate@@PAU1@@?$_Wrap_alloc@V?$allocator@PAVCoordinate@@@std@@@std@@QAEXPAPAUCoordinate@@$$QAPAU2@@Z 0042edb0 f i PlayState.obj
 0001:0002ddf0       ??$construct@PAUCoordinate@@PAU1@@?$allocator@PAVCoordinate@@@std@@QAEXPAPAUCoordinate@@$$QAPAU2@@Z 0042edf0 f i PlayState.obj
 0001:0002dea0       ??$construct@PAUCoordinate@@PAU1@@?$allocator_traits@V?$allocator@PAVCoordinate@@@std@@@std@@SAXAAV?$allocator@PAVCoordinate@@@1@PAPAUCoordinate@@$$QAPAU3@@Z 0042eea0 f i PlayState.obj
 0001:0002dee0       ??$construct@PAVZombieObject@@AAPAV1@@?$_Wrap_alloc@V?$allocator@PAVZombieObject@@@std@@@std@@QAEXPAPAVZombieObject@@AAPAV2@@Z 0042eee0 f i PlayState.obj
 0001:0002df20       ??$construct@PAVZombieObject@@AAPAV1@@?$allocator@PAVZombieObject@@@std@@QAEXPAPAVZombieObject@@AAPAV2@@Z 0042ef20 f i PlayState.obj
 0001:0002dfd0       ??$construct@PAVZombieObject@@AAPAV1@@?$allocator_traits@V?$allocator@PAVZombieObject@@@std@@@std@@SAXAAV?$allocator@PAVZombieObject@@@1@PAPAVZombieObject@@AAPAV3@@Z 0042efd0 f i PlayState.obj
 0001:0002e010       ??$construct@PAVZombieObject@@ABQAV1@@?$_Wrap_alloc@V?$allocator@PAVZombieObject@@@std@@@std@@QAEXPAPAVZombieObject@@ABQAV2@@Z 0042f010 f i PlayState.obj
 0001:0002e050       ??$construct@PAVZombieObject@@ABQAV1@@?$allocator_traits@V?$allocator@PAVZombieObject@@@std@@@std@@SAXAAV?$allocator@PAVZombieObject@@@1@PAPAVZombieObject@@ABQAV3@@Z 0042f050 f i PlayState.obj
 0001:0002e090       ??$construct@U_Container_proxy@std@@U12@@?$_Wrap_alloc@V?$allocator@U_Container_proxy@std@@@std@@@std@@QAEXPAU_Container_proxy@1@$$QAU21@@Z 0042f090 f i PlayState.obj
 0001:0002e0d0       ??$construct@U_Container_proxy@std@@U12@@?$allocator@U_Container_proxy@std@@@std@@QAEXPAU_Container_proxy@1@$$QAU21@@Z 0042f0d0 f i PlayState.obj
 0001:0002e190       ??$construct@U_Container_proxy@std@@U12@@?$allocator_traits@V?$allocator@U_Container_proxy@std@@@std@@@std@@SAXAAV?$allocator@U_Container_proxy@std@@@1@PAU_Container_proxy@1@$$QAU31@@Z 0042f190 f i PlayState.obj
 0001:0002e1d0       ??$destroy@N@?$_Wrap_alloc@V?$allocator@N@std@@@std@@QAEXPAN@Z 0042f1d0 f i PlayState.obj
 0001:0002e200       ??$destroy@N@?$allocator@N@std@@QAEXPAN@Z 0042f200 f i PlayState.obj
 0001:0002e220       ??$destroy@N@?$allocator_traits@V?$allocator@N@std@@@std@@SAXAAV?$allocator@N@1@PAN@Z 0042f220 f i PlayState.obj
 0001:0002e250       ??$destroy@PAN@?$_Wrap_alloc@V?$allocator@N@std@@@std@@QAEXPAPAN@Z 0042f250 f i PlayState.obj
 0001:0002e280       ??$destroy@PAN@?$allocator@N@std@@QAEXPAPAN@Z 0042f280 f i PlayState.obj
 0001:0002e2a0       ??$destroy@PAN@?$allocator_traits@V?$allocator@N@std@@@std@@SAXAAV?$allocator@N@1@PAPAN@Z 0042f2a0 f i PlayState.obj
 0001:0002e2d0       ??$destroy@PAPAUCoordinate@@@?$_Wrap_alloc@V?$allocator@PAVCoordinate@@@std@@@std@@QAEXPAPAPAUCoordinate@@@Z 0042f2d0 f i PlayState.obj
 0001:0002e300       ??$destroy@PAPAUCoordinate@@@?$allocator@PAVCoordinate@@@std@@QAEXPAPAPAUCoordinate@@@Z 0042f300 f i PlayState.obj
 0001:0002e320       ??$destroy@PAPAUCoordinate@@@?$allocator_traits@V?$allocator@PAVCoordinate@@@std@@@std@@SAXAAV?$allocator@PAVCoordinate@@@1@PAPAPAUCoordinate@@@Z 0042f320 f i PlayState.obj
 0001:0002e350       ??$destroy@PAUCoordinate@@@?$_Wrap_alloc@V?$allocator@PAVCoordinate@@@std@@@std@@QAEXPAPAUCoordinate@@@Z 0042f350 f i PlayState.obj
 0001:0002e380       ??$destroy@PAUCoordinate@@@?$allocator@PAVCoordinate@@@std@@QAEXPAPAUCoordinate@@@Z 0042f380 f i PlayState.obj
 0001:0002e3a0       ??$destroy@PAUCoordinate@@@?$allocator_traits@V?$allocator@PAVCoordinate@@@std@@@std@@SAXAAV?$allocator@PAVCoordinate@@@1@PAPAUCoordinate@@@Z 0042f3a0 f i PlayState.obj
 0001:0002e3d0       ??$destroy@U_Container_proxy@std@@@?$_Wrap_alloc@V?$allocator@U_Container_proxy@std@@@std@@@std@@QAEXPAU_Container_proxy@1@@Z 0042f3d0 f i PlayState.obj
 0001:0002e400       ??$destroy@U_Container_proxy@std@@@?$allocator@U_Container_proxy@std@@@std@@QAEXPAU_Container_proxy@1@@Z 0042f400 f i PlayState.obj
 0001:0002e420       ??$destroy@U_Container_proxy@std@@@?$allocator_traits@V?$allocator@U_Container_proxy@std@@@std@@@std@@SAXAAV?$allocator@U_Container_proxy@std@@@1@PAU_Container_proxy@1@@Z 0042f420 f i PlayState.obj
 0001:0002e450       ??$forward@AAPAVZombieObject@@@std@@YAAAPAVZombieObject@@AAPAV1@@Z 0042f450 f i PlayState.obj
 0001:0002e470       ??$forward@ABQAVZombieObject@@@std@@YAABQAVZombieObject@@ABQAV1@@Z 0042f470 f i PlayState.obj
 0001:0002e490       ??$forward@N@std@@YA$$QANAAN@Z 0042f490 f i PlayState.obj
 0001:0002e4b0       ??$forward@PAUCoordinate@@@std@@YA$$QAPAUCoordinate@@AAPAU1@@Z 0042f4b0 f i PlayState.obj
 0001:0002e4d0       ??$forward@U_Container_proxy@std@@@std@@YA$$QAU_Container_proxy@0@AAU10@@Z 0042f4d0 f i PlayState.obj
 0001:0002e4f0       ??$forward@V?$vector@PAVZombieObject@@V?$allocator@PAVZombieObject@@@std@@@std@@@std@@YA$$QAV?$vector@PAVZombieObject@@V?$allocator@PAVZombieObject@@@std@@@0@AAV10@@Z 0042f4f0 f i PlayState.obj
 0001:0002e510       ??$min@H@std@@YAABHABH0@Z  0042f510 f i PlayState.obj
 0001:0002e550       ??0?$_Deque_alloc@$0A@U?$_Deque_base_types@NV?$allocator@N@std@@@std@@@std@@QAE@ABV?$allocator@N@1@@Z 0042f550 f i PlayState.obj
 0001:0002e5d0       ??0?$_Deque_alloc@$0A@U?$_Deque_base_types@PAVCoordinate@@V?$allocator@PAVCoordinate@@@std@@@std@@@std@@QAE@ABV?$allocator@PAVCoordinate@@@1@@Z 0042f5d0 f i PlayState.obj
 0001:0002e650       ??0?$_Deque_const_iterator@V?$_Deque_val@U?$_Deque_simple_types@N@std@@@std@@@std@@QAE@ABV01@@Z 0042f650 f i PlayState.obj
 0001:0002e690       ??0?$_Deque_const_iterator@V?$_Deque_val@U?$_Deque_simple_types@N@std@@@std@@@std@@QAE@IPBU_Container_base12@1@@Z 0042f690 f i PlayState.obj
 0001:0002e720       ??0?$_Deque_const_iterator@V?$_Deque_val@U?$_Deque_simple_types@PAVCoordinate@@@std@@@std@@@std@@QAE@IPBU_Container_base12@1@@Z 0042f720 f i PlayState.obj
 0001:0002e7b0       ??0?$_Deque_iterator@V?$_Deque_val@U?$_Deque_simple_types@N@std@@@std@@@std@@QAE@ABV01@@Z 0042f7b0 f i PlayState.obj
 0001:0002e7e0       ??0?$_Deque_iterator@V?$_Deque_val@U?$_Deque_simple_types@N@std@@@std@@@std@@QAE@IPBU_Container_base12@1@@Z 0042f7e0 f i PlayState.obj
 0001:0002e820       ??0?$_Deque_iterator@V?$_Deque_val@U?$_Deque_simple_types@PAVCoordinate@@@std@@@std@@@std@@QAE@IPBU_Container_base12@1@@Z 0042f820 f i PlayState.obj
 0001:0002e860       ??0?$_Deque_val@U?$_Deque_simple_types@N@std@@@std@@QAE@XZ 0042f860 f i PlayState.obj
 0001:0002e8c0       ??0?$_Deque_val@U?$_Deque_simple_types@PAVCoordinate@@@std@@@std@@QAE@XZ 0042f8c0 f i PlayState.obj
 0001:0002e920       ??0?$_Vector_alloc@$0A@U?$_Vec_base_types@PAVZombieObject@@V?$allocator@PAVZombieObject@@@std@@@std@@@std@@QAE@ABV?$allocator@PAVZombieObject@@@1@@Z 0042f920 f i PlayState.obj
 0001:0002e950       ??0?$_Vector_val@U?$_Simple_types@PAVZombieObject@@@std@@@std@@QAE@XZ 0042f950 f i PlayState.obj
 0001:0002e990       ??0?$_Wrap_alloc@V?$allocator@N@std@@@std@@QAE@XZ 0042f990 f i PlayState.obj
 0001:0002e9c0       ??0?$_Wrap_alloc@V?$allocator@PAVCoordinate@@@std@@@std@@QAE@XZ 0042f9c0 f i PlayState.obj
 0001:0002e9f0       ??0?$_Wrap_alloc@V?$allocator@U_Container_proxy@std@@@std@@@std@@QAE@XZ 0042f9f0 f i PlayState.obj
 0001:0002ea20       ??0?$allocator@N@std@@QAE@XZ 0042fa20 f i PlayState.obj
 0001:0002ea40       ??0?$allocator@PAVCoordinate@@@std@@QAE@XZ 0042fa40 f i PlayState.obj
 0001:0002ea60       ??0?$allocator@U_Container_proxy@std@@@std@@QAE@XZ 0042fa60 f i PlayState.obj
 0001:0002ea80       ??0?$deque@NV?$allocator@N@std@@@std@@QAE@XZ 0042fa80 f i PlayState.obj
 0001:0002eab0       ??0?$deque@PAVCoordinate@@V?$allocator@PAVCoordinate@@@std@@@std@@QAE@XZ 0042fab0 f i PlayState.obj
 0001:0002eae0       ??0?$vector@PAVZombieObject@@V?$allocator@PAVZombieObject@@@std@@@std@@QAE@$$QAV01@@Z 0042fae0 f i PlayState.obj
 0001:0002eb40       ??0?$vector@PAVZombieObject@@V?$allocator@PAVZombieObject@@@std@@@std@@QAE@XZ 0042fb40 f i PlayState.obj
 0001:0002eb70       ??0ImageData@@QAE@XZ       0042fb70 f i PlayState.obj
 0001:0002ebb0       ??0PlayState@@QAE@PAVPsyja2Engine@@HHHPBD@Z 0042fbb0 f   PlayState.obj
 0001:0002eec0       ??0_Container_proxy@std@@QAE@XZ 0042fec0 f i PlayState.obj
 0001:0002ef00       ??0_Iterator_base12@std@@QAE@ABU01@@Z 0042ff00 f i PlayState.obj
 0001:0002ef50       ??0_Iterator_base12@std@@QAE@XZ 0042ff50 f i PlayState.obj
 0001:0002ef90       ??1?$_Deque_alloc@$0A@U?$_Deque_base_types@NV?$allocator@N@std@@@std@@@std@@QAE@XZ 0042ff90 f i PlayState.obj
 0001:0002efc0       ??1?$_Deque_alloc@$0A@U?$_Deque_base_types@PAVCoordinate@@V?$allocator@PAVCoordinate@@@std@@@std@@@std@@QAE@XZ 0042ffc0 f i PlayState.obj
 0001:0002eff0       ??1?$_Deque_const_iterator@V?$_Deque_val@U?$_Deque_simple_types@N@std@@@std@@@std@@QAE@XZ 0042fff0 f i PlayState.obj
 0001:0002f020       ??1?$_Deque_const_iterator@V?$_Deque_val@U?$_Deque_simple_types@PAVCoordinate@@@std@@@std@@@std@@QAE@XZ 00430020 f i PlayState.obj
 0001:0002f050       ??1?$_Deque_iterator@V?$_Deque_val@U?$_Deque_simple_types@N@std@@@std@@@std@@QAE@XZ 00430050 f i PlayState.obj
 0001:0002f080       ??1?$_Deque_iterator@V?$_Deque_val@U?$_Deque_simple_types@PAVCoordinate@@@std@@@std@@@std@@QAE@XZ 00430080 f i PlayState.obj
 0001:0002f0b0       ??1?$_Deque_val@U?$_Deque_simple_types@N@std@@@std@@QAE@XZ 004300b0 f i PlayState.obj
 0001:0002f0e0       ??1?$_Deque_val@U?$_Deque_simple_types@PAVCoordinate@@@std@@@std@@QAE@XZ 004300e0 f i PlayState.obj
 0001:0002f110       ??1?$deque@NV?$allocator@N@std@@@std@@QAE@XZ 00430110 f i PlayState.obj
 0001:0002f140       ??1?$deque@PAVCoordinate@@V?$allocator@PAVCoordinate@@@std@@@std@@QAE@XZ 00430140 f i PlayState.obj
 0001:0002f170       ??1ImageData@@QAE@XZ       00430170 f i PlayState.obj
 0001:0002f1b0       ??1PlayState@@QAE@XZ       004301b0 f   PlayState.obj
 0001:0002f2c0       ??1_Iterator_base12@std@@QAE@XZ 004302c0 f i PlayState.obj
 0001:0002f2e0       ??4_Iterator_base12@std@@QAEAAU01@ABU01@@Z 004302e0 f i PlayState.obj
 0001:0002f330       ??8?$_Deque_const_iterator@V?$_Deque_val@U?$_Deque_simple_types@N@std@@@std@@@std@@QBE_NABV01@@Z 00430330 f i PlayState.obj
 0001:0002f390       ??8?$_Deque_const_iterator@V?$_Deque_val@U?$_Deque_simple_types@PAVCoordinate@@@std@@@std@@@std@@QBE_NABV01@@Z 00430390 f i PlayState.obj
 0001:0002f3f0       ??9?$_Deque_const_iterator@V?$_Deque_val@U?$_Deque_simple_types@N@std@@@std@@@std@@QBE_NABV01@@Z 004303f0 f i PlayState.obj
 0001:0002f440       ??9?$_Deque_const_iterator@V?$_Deque_val@U?$_Deque_simple_types@PAVCoordinate@@@std@@@std@@@std@@QBE_NABV01@@Z 00430440 f i PlayState.obj
 0001:0002f490       ??A?$deque@NV?$allocator@N@std@@@std@@QAEAANI@Z 00430490 f i PlayState.obj
 0001:0002f560       ??D?$_Deque_const_iterator@V?$_Deque_val@U?$_Deque_simple_types@N@std@@@std@@@std@@QBEABNXZ 00430560 f i PlayState.obj
 0001:0002f5d0       ??D?$_Deque_const_iterator@V?$_Deque_val@U?$_Deque_simple_types@PAVCoordinate@@@std@@@std@@@std@@QBEABQAUCoordinate@@XZ 004305d0 f i PlayState.obj
 0001:0002f640       ??D?$_Deque_iterator@V?$_Deque_val@U?$_Deque_simple_types@N@std@@@std@@@std@@QBEAANXZ 00430640 f i PlayState.obj
 0001:0002f670       ??D?$_Deque_iterator@V?$_Deque_val@U?$_Deque_simple_types@PAVCoordinate@@@std@@@std@@@std@@QBEAAPAUCoordinate@@XZ 00430670 f i PlayState.obj
 0001:0002f6a0       ??E?$_Deque_const_iterator@V?$_Deque_val@U?$_Deque_simple_types@N@std@@@std@@@std@@QAEAAV01@XZ 004306a0 f i PlayState.obj
 0001:0002f6d0       ??E?$_Deque_const_iterator@V?$_Deque_val@U?$_Deque_simple_types@PAVCoordinate@@@std@@@std@@@std@@QAEAAV01@XZ 004306d0 f i PlayState.obj
 0001:0002f700       ??E?$_Deque_iterator@V?$_Deque_val@U?$_Deque_simple_types@N@std@@@std@@@std@@QAEAAV01@XZ 00430700 f i PlayState.obj
 0001:0002f730       ??E?$_Deque_iterator@V?$_Deque_val@U?$_Deque_simple_types@PAVCoordinate@@@std@@@std@@@std@@QAEAAV01@XZ 00430730 f i PlayState.obj
 0001:0002f760       ??H?$_Deque_iterator@V?$_Deque_val@U?$_Deque_simple_types@N@std@@@std@@@std@@QBE?AV01@H@Z 00430760 f i PlayState.obj
 0001:0002f810       ??Y?$_Deque_iterator@V?$_Deque_val@U?$_Deque_simple_types@N@std@@@std@@@std@@QAEAAV01@H@Z 00430810 f i PlayState.obj
 0001:0002f840       ??_GMap@@QAEPAXI@Z         00430840 f i PlayState.obj
 0001:0002f890       ??_GPsyja2TileManager@@QAEPAXI@Z 00430890 f i PlayState.obj
 0001:0002f8e0       ?DrawAllTiles@TileManager@@QBEXPAVBaseEngine@@PAUSDL_Surface@@HHHH@Z 004308e0 f i PlayState.obj
 0001:0002f940       ?DrawBackgroundRectangle@BaseEngine@@QAEXHHHHI@Z 00430940 f i PlayState.obj
 0001:0002f990       ?DrawStrings@PlayState@@UAEXXZ 00430990 f   PlayState.obj
 0001:0002fde0       ?GameAction@PlayState@@UAEXXZ 00430de0 f   PlayState.obj
 0001:00030aa0       ?GetBlood@SpriteManager@@QAEPAVImageData@@XZ 00431aa0 f i PlayState.obj
 0001:00030ac0       ?GetNumZombies@Round@@QAEHXZ 00431ac0 f i PlayState.obj
 0001:00030af0       ?GetZombieHealth@Round@@QAEHXZ 00431af0 f i PlayState.obj
 0001:00030b70       ?GetZombieSpawnLimit@Round@@QAEHXZ 00431b70 f i PlayState.obj
 0001:00030c00       ?GetZombieSpawnRate@Round@@QAENXZ 00431c00 f i PlayState.obj
 0001:00030c80       ?InitialiseObjects@PlayState@@UAEHXZ 00431c80 f   PlayState.obj
 0001:00030d80       ?KeyDown@PlayState@@UAEXH@Z 00431d80 f   PlayState.obj
 0001:00030e50       ?KillZombie@PlayState@@QAEXPAVZombieObject@@@Z 00431e50 f   PlayState.obj
 0001:00030fa0       ?MouseDown@PlayState@@UAEXHHH@Z 00431fa0 f   PlayState.obj
 0001:00031110       ?MouseMoved@PlayState@@UAEXHH@Z 00432110 f   PlayState.obj
 0001:000311b0       ?SetBaseTilesPositionOnScreen@TileManager@@QAEXHH@Z 004321b0 f i PlayState.obj
 0001:000311e0       ?SetupBackgroundBuffer@PlayState@@UAEXXZ 004321e0 f   PlayState.obj
 0001:00031600       ?_Adopt@_Iterator_base12@std@@QAEXPBU_Container_base12@2@@Z 00432600 f i PlayState.obj
 0001:00031640       ?_Alloc_proxy@?$_Deque_alloc@$0A@U?$_Deque_base_types@NV?$allocator@N@std@@@std@@@std@@QAEXXZ 00432640 f i PlayState.obj
 0001:000316a0       ?_Alloc_proxy@?$_Deque_alloc@$0A@U?$_Deque_base_types@PAVCoordinate@@V?$allocator@PAVCoordinate@@@std@@@std@@@std@@QAEXXZ 004326a0 f i PlayState.obj
 0001:00031700       ?_Assign_rv@?$vector@PAVZombieObject@@V?$allocator@PAVZombieObject@@@std@@@std@@QAEX$$QAV12@U?$integral_constant@_N$00@2@@Z 00432700 f i PlayState.obj
 0001:00031780       ?_Compat@?$_Deque_const_iterator@V?$_Deque_val@U?$_Deque_simple_types@N@std@@@std@@@std@@QBEXABV12@@Z 00432780 f i PlayState.obj
 0001:000317a0       ?_Compat@?$_Deque_const_iterator@V?$_Deque_val@U?$_Deque_simple_types@PAVCoordinate@@@std@@@std@@@std@@QBEXABV12@@Z 004327a0 f i PlayState.obj
 0001:000317c0       ?_Free_proxy@?$_Deque_alloc@$0A@U?$_Deque_base_types@NV?$allocator@N@std@@@std@@@std@@QAEXXZ 004327c0 f i PlayState.obj
 0001:00031820       ?_Free_proxy@?$_Deque_alloc@$0A@U?$_Deque_base_types@PAVCoordinate@@V?$allocator@PAVCoordinate@@@std@@@std@@@std@@QAEXXZ 00432820 f i PlayState.obj
 0001:00031880       ?_Getal@?$_Deque_alloc@$0A@U?$_Deque_base_types@NV?$allocator@N@std@@@std@@@std@@QBE?AU?$_Wrap_alloc@V?$allocator@N@std@@@2@XZ 00432880 f i PlayState.obj
 0001:000318b0       ?_Getal@?$_Deque_alloc@$0A@U?$_Deque_base_types@PAVCoordinate@@V?$allocator@PAVCoordinate@@@std@@@std@@@std@@QBE?AU?$_Wrap_alloc@V?$allocator@PAVCoordinate@@@std@@@2@XZ 004328b0 f i PlayState.obj
 0001:000318e0       ?_Getblock@?$_Deque_val@U?$_Deque_simple_types@N@std@@@std@@QBEII@Z 004328e0 f i PlayState.obj
 0001:00031910       ?_Getblock@?$_Deque_val@U?$_Deque_simple_types@PAVCoordinate@@@std@@@std@@QBEII@Z 00432910 f i PlayState.obj
 0001:00031940       ?_Getcont@_Iterator_base12@std@@QBEPBU_Container_base12@2@XZ 00432940 f i PlayState.obj
 0001:00031980       ?_Grow_to@?$vector@PAVZombieObject@@V?$allocator@PAVZombieObject@@@std@@@std@@IBEII@Z 00432980 f i PlayState.obj
 0001:00031a00       ?_Growmap@?$deque@NV?$allocator@N@std@@@std@@IAEXI@Z 00432a00 f i PlayState.obj
 0001:00031c90       ?_Growmap@?$deque@PAVCoordinate@@V?$allocator@PAVCoordinate@@@std@@@std@@IAEXI@Z 00432c90 f i PlayState.obj
 0001:00031f30       ?_Inside@?$vector@PAVZombieObject@@V?$allocator@PAVZombieObject@@@std@@@std@@IBE_NPBQAVZombieObject@@@Z 00432f30 f i PlayState.obj
 0001:00031f80       ?_Orphan_range@?$vector@PAVZombieObject@@V?$allocator@PAVZombieObject@@@std@@@std@@IBEXPAPAVZombieObject@@0@Z 00432f80 f i PlayState.obj
 0001:00031fa0       ?_Reallocate@?$vector@PAVZombieObject@@V?$allocator@PAVZombieObject@@@std@@@std@@IAEXI@Z 00432fa0 f i PlayState.obj
 0001:00032130       ?_Reserve@?$vector@PAVZombieObject@@V?$allocator@PAVZombieObject@@@std@@@std@@IAEXI@Z 00433130 f i PlayState.obj
 0001:000321b0       ?_Setcont@?$_Deque_const_iterator@V?$_Deque_val@U?$_Deque_simple_types@N@std@@@std@@@std@@QAEXPBV?$_Deque_val@U?$_Deque_simple_types@N@std@@@2@@Z 004331b0 f i PlayState.obj
 0001:000321e0       ?_Setcont@?$_Deque_const_iterator@V?$_Deque_val@U?$_Deque_simple_types@PAVCoordinate@@@std@@@std@@@std@@QAEXPBV?$_Deque_val@U?$_Deque_simple_types@PAVCoordinate@@@std@@@2@@Z 004331e0 f i PlayState.obj
 0001:00032210       ?_Tidy@?$deque@NV?$allocator@N@std@@@std@@IAEXXZ 00433210 f i PlayState.obj
 0001:00032330       ?_Tidy@?$deque@PAVCoordinate@@V?$allocator@PAVCoordinate@@@std@@@std@@IAEXXZ 00433330 f i PlayState.obj
 0001:00032450       ?_Unused_capacity@?$vector@PAVZombieObject@@V?$allocator@PAVZombieObject@@@std@@@std@@QBEIXZ 00433450 f i PlayState.obj
 0001:00032480       ?_Xlen@?$deque@NV?$allocator@N@std@@@std@@IBEXXZ 00433480 f i PlayState.obj
 0001:000324b0       ?_Xlen@?$deque@PAVCoordinate@@V?$allocator@PAVCoordinate@@@std@@@std@@IBEXXZ 004334b0 f i PlayState.obj
 0001:000324e0       ?_Xlen@?$vector@PAVZombieObject@@V?$allocator@PAVZombieObject@@@std@@@std@@IBEXXZ 004334e0 f i PlayState.obj
 0001:00032510       ?allocate@?$_Wrap_alloc@V?$allocator@N@std@@@std@@QAEPANI@Z 00433510 f i PlayState.obj
 0001:00032540       ?allocate@?$_Wrap_alloc@V?$allocator@PAN@std@@@std@@QAEPAPANI@Z 00433540 f i PlayState.obj
 0001:00032570       ?allocate@?$_Wrap_alloc@V?$allocator@PAPAVCoordinate@@@std@@@std@@QAEPAPAPAUCoordinate@@I@Z 00433570 f i PlayState.obj
 0001:000325a0       ?allocate@?$_Wrap_alloc@V?$allocator@PAVCoordinate@@@std@@@std@@QAEPAPAUCoordinate@@I@Z 004335a0 f i PlayState.obj
 0001:000325d0       ?allocate@?$_Wrap_alloc@V?$allocator@PAVZombieObject@@@std@@@std@@QAEPAPAVZombieObject@@I@Z 004335d0 f i PlayState.obj
 0001:00032600       ?allocate@?$_Wrap_alloc@V?$allocator@U_Container_proxy@std@@@std@@@std@@QAEPAU_Container_proxy@2@I@Z 00433600 f i PlayState.obj
 0001:00032630       ?allocate@?$allocator@N@std@@QAEPANI@Z 00433630 f i PlayState.obj
 0001:00032660       ?allocate@?$allocator@PAN@std@@QAEPAPANI@Z 00433660 f i PlayState.obj
 0001:00032690       ?allocate@?$allocator@PAPAVCoordinate@@@std@@QAEPAPAPAUCoordinate@@I@Z 00433690 f i PlayState.obj
 0001:000326c0       ?allocate@?$allocator@PAVCoordinate@@@std@@QAEPAPAUCoordinate@@I@Z 004336c0 f i PlayState.obj
 0001:000326f0       ?allocate@?$allocator@PAVZombieObject@@@std@@QAEPAPAVZombieObject@@I@Z 004336f0 f i PlayState.obj
 0001:00032720       ?allocate@?$allocator@U_Container_proxy@std@@@std@@QAEPAU_Container_proxy@2@I@Z 00433720 f i PlayState.obj
 0001:00032750       ?begin@?$deque@NV?$allocator@N@std@@@std@@QAE?AV?$_Deque_iterator@V?$_Deque_val@U?$_Deque_simple_types@N@std@@@std@@@2@XZ 00433750 f i PlayState.obj
 0001:00032790       ?begin@?$deque@PAVCoordinate@@V?$allocator@PAVCoordinate@@@std@@@std@@QAE?AV?$_Deque_iterator@V?$_Deque_val@U?$_Deque_simple_types@PAVCoordinate@@@std@@@std@@@2@XZ 00433790 f i PlayState.obj
 0001:000327d0       ?capacity@?$vector@PAVZombieObject@@V?$allocator@PAVZombieObject@@@std@@@std@@QBEIXZ 004337d0 f i PlayState.obj
 0001:00032800       ?construct@?$allocator@PAVZombieObject@@@std@@QAEXPAPAVZombieObject@@ABQAV3@@Z 00433800 f i PlayState.obj
 0001:00032860       ?deallocate@?$_Wrap_alloc@V?$allocator@N@std@@@std@@QAEXPANI@Z 00433860 f i PlayState.obj
 0001:00032890       ?deallocate@?$_Wrap_alloc@V?$allocator@PAN@std@@@std@@QAEXPAPANI@Z 00433890 f i PlayState.obj
 0001:000328c0       ?deallocate@?$_Wrap_alloc@V?$allocator@PAPAVCoordinate@@@std@@@std@@QAEXPAPAPAUCoordinate@@I@Z 004338c0 f i PlayState.obj
 0001:000328f0       ?deallocate@?$_Wrap_alloc@V?$allocator@PAVCoordinate@@@std@@@std@@QAEXPAPAUCoordinate@@I@Z 004338f0 f i PlayState.obj
 0001:00032920       ?deallocate@?$_Wrap_alloc@V?$allocator@U_Container_proxy@std@@@std@@@std@@QAEXPAU_Container_proxy@2@I@Z 00433920 f i PlayState.obj
 0001:00032950       ?deallocate@?$allocator@N@std@@QAEXPANI@Z 00433950 f i PlayState.obj
 0001:00032980       ?deallocate@?$allocator@PAN@std@@QAEXPAPANI@Z 00433980 f i PlayState.obj
 0001:000329b0       ?deallocate@?$allocator@PAPAVCoordinate@@@std@@QAEXPAPAPAUCoordinate@@I@Z 004339b0 f i PlayState.obj
 0001:000329e0       ?deallocate@?$allocator@PAVCoordinate@@@std@@QAEXPAPAUCoordinate@@I@Z 004339e0 f i PlayState.obj
 0001:00032a10       ?deallocate@?$allocator@U_Container_proxy@std@@@std@@QAEXPAU_Container_proxy@2@I@Z 00433a10 f i PlayState.obj
 0001:00032a40       ?empty@?$deque@NV?$allocator@N@std@@@std@@QBE_NXZ 00433a40 f i PlayState.obj
 0001:00032a80       ?empty@?$deque@PAVCoordinate@@V?$allocator@PAVCoordinate@@@std@@@std@@QBE_NXZ 00433a80 f i PlayState.obj
 0001:00032ac0       ?end@?$deque@NV?$allocator@N@std@@@std@@QAE?AV?$_Deque_iterator@V?$_Deque_val@U?$_Deque_simple_types@N@std@@@std@@@2@XZ 00433ac0 f i PlayState.obj
 0001:00032b00       ?end@?$deque@PAVCoordinate@@V?$allocator@PAVCoordinate@@@std@@@std@@QAE?AV?$_Deque_iterator@V?$_Deque_val@U?$_Deque_simple_types@PAVCoordinate@@@std@@@std@@@2@XZ 00433b00 f i PlayState.obj
 0001:00032b40       ?getCollectables@PlayState@@QAE?AV?$vector@PAVCollectableObject@@V?$allocator@PAVCollectableObject@@@std@@@std@@XZ 00433b40 f   PlayState.obj
 0001:00032b90       ?getPlayer@PlayState@@QAEPAVPlayerObject@@XZ 00433b90 f   PlayState.obj
 0001:00032bb0       ?getZombies@PlayState@@QAE?AV?$vector@PAVZombieObject@@V?$allocator@PAVZombieObject@@@std@@@std@@XZ 00433bb0 f   PlayState.obj
 0001:00032c00       ?max_size@?$_Wrap_alloc@V?$allocator@N@std@@@std@@QBEIXZ 00433c00 f i PlayState.obj
 0001:00032c30       ?max_size@?$_Wrap_alloc@V?$allocator@PAVCoordinate@@@std@@@std@@QBEIXZ 00433c30 f i PlayState.obj
 0001:00032c60       ?max_size@?$_Wrap_alloc@V?$allocator@PAVZombieObject@@@std@@@std@@QBEIXZ 00433c60 f i PlayState.obj
 0001:00032c90       ?max_size@?$allocator@N@std@@QBEIXZ 00433c90 f i PlayState.obj
 0001:00032cb0       ?max_size@?$allocator@PAVCoordinate@@@std@@QBEIXZ 00433cb0 f i PlayState.obj
 0001:00032cd0       ?max_size@?$allocator@PAVZombieObject@@@std@@QBEIXZ 00433cd0 f i PlayState.obj
 0001:00032cf0       ?max_size@?$allocator_traits@V?$allocator@N@std@@@std@@SAIABV?$allocator@N@2@@Z 00433cf0 f i PlayState.obj
 0001:00032d10       ?max_size@?$allocator_traits@V?$allocator@PAVCoordinate@@@std@@@std@@SAIABV?$allocator@PAVCoordinate@@@2@@Z 00433d10 f i PlayState.obj
 0001:00032d30       ?max_size@?$allocator_traits@V?$allocator@PAVZombieObject@@@std@@@std@@SAIABV?$allocator@PAVZombieObject@@@2@@Z 00433d30 f i PlayState.obj
 0001:00032d50       ?max_size@?$deque@NV?$allocator@N@std@@@std@@QBEIXZ 00433d50 f i PlayState.obj
 0001:00032d80       ?max_size@?$deque@PAVCoordinate@@V?$allocator@PAVCoordinate@@@std@@@std@@QBEIXZ 00433d80 f i PlayState.obj
 0001:00032db0       ?max_size@?$vector@PAVZombieObject@@V?$allocator@PAVZombieObject@@@std@@@std@@QBEIXZ 00433db0 f i PlayState.obj
 0001:00032de0       ?pop_back@?$deque@NV?$allocator@N@std@@@std@@QAEXXZ 00433de0 f i PlayState.obj
 0001:00032e90       ?pop_back@?$deque@PAVCoordinate@@V?$allocator@PAVCoordinate@@@std@@@std@@QAEXXZ 00433e90 f i PlayState.obj
 0001:00032f40       ?push_back@?$vector@PAVZombieObject@@V?$allocator@PAVZombieObject@@@std@@@std@@QAEXABQAVZombieObject@@@Z 00433f40 f i PlayState.obj
 0001:00033090       ?push_front@?$deque@NV?$allocator@N@std@@@std@@QAEX$$QAN@Z 00434090 f i PlayState.obj
 0001:00033200       ?push_front@?$deque@PAVCoordinate@@V?$allocator@PAVCoordinate@@@std@@@std@@QAEX$$QAPAUCoordinate@@@Z 00434200 f i PlayState.obj
 0001:00033380       ?size@?$deque@NV?$allocator@N@std@@@std@@QBEIXZ 00434380 f i PlayState.obj
 0001:000333a0       ?size@?$vector@PAVZombieObject@@V?$allocator@PAVZombieObject@@@std@@@std@@QBEIXZ 004343a0 f i PlayState.obj
 0001:000333d0       ?str@?$basic_ostringstream@DU?$char_traits@D@std@@V?$allocator@D@2@@std@@QAEXABV?$basic_string@DU?$char_traits@D@std@@V?$allocator@D@2@@2@@Z 004343d0 f i PlayState.obj
 0001:00033400       ?str@?$basic_stringbuf@DU?$char_traits@D@std@@V?$allocator@D@2@@std@@QAEXABV?$basic_string@DU?$char_traits@D@std@@V?$allocator@D@2@@2@@Z 00434400 f i PlayState.obj
 0001:00033450       ??0Polygon@@QAE@HPAN0@Z    00434450 f   Polygon.obj
 0001:00033490       ??1Polygon@@QAE@XZ         00434490 f   Polygon.obj
 0001:000334b0       ??$addressof@V?$basic_string@DU?$char_traits@D@std@@V?$allocator@D@2@@std@@@std@@YAPAV?$basic_string@DU?$char_traits@D@std@@V?$allocator@D@2@@0@AAV10@@Z 004344b0 f i Psyja2Engine.obj
 0001:000334d0       ??0Psyja2Engine@@QAE@XZ    004344d0 f   Psyja2Engine.obj
 0001:000338b0       ??1Psyja2Engine@@UAE@XZ    004348b0 f   Psyja2Engine.obj
 0001:000339b0       ??_GPsyja2Engine@@UAEPAXI@Z 004349b0 f i Psyja2Engine.obj
 0001:000339b0       ??_EPsyja2Engine@@UAEPAXI@Z 004349b0 f i Psyja2Engine.obj
 0001:00033a00       ??_GSpriteManager@@QAEPAXI@Z 00434a00 f i Psyja2Engine.obj
 0001:00033a50       ??_GState@@QAEPAXI@Z       00434a50 f i Psyja2Engine.obj
 0001:00033aa0       ?DrawStrings@Psyja2Engine@@UAEXXZ 00434aa0 f   Psyja2Engine.obj
 0001:00033ae0       ?DrawStringsOnTop@Psyja2Engine@@UAEXXZ 00434ae0 f   Psyja2Engine.obj
 0001:00033b20       ?GameAction@Psyja2Engine@@UAEXXZ 00434b20 f   Psyja2Engine.obj
 0001:00033b60       ?InitialiseObjects@Psyja2Engine@@UAEHXZ 00434b60 f   Psyja2Engine.obj
 0001:00033ba0       ?KeyDown@Psyja2Engine@@UAEXH@Z 00434ba0 f   Psyja2Engine.obj
 0001:00033be0       ?MouseDown@Psyja2Engine@@UAEXHHH@Z 00434be0 f   Psyja2Engine.obj
 0001:00033c30       ?MouseMoved@Psyja2Engine@@UAEXHH@Z 00434c30 f   Psyja2Engine.obj
 0001:00033c80       ?SetupBackgroundBuffer@Psyja2Engine@@UAEXXZ 00434c80 f   Psyja2Engine.obj
 0001:00033cd0       ?SwitchState@Psyja2Engine@@QAEXPAVState@@_N1@Z 00434cd0 f   Psyja2Engine.obj
 0001:00033d90       ?push_back@?$vector@V?$basic_string@DU?$char_traits@D@std@@V?$allocator@D@2@@std@@V?$allocator@V?$basic_string@DU?$char_traits@D@std@@V?$allocator@D@2@@std@@@2@@std@@QAEX$$QAV?$basic_string@DU?$char_traits@D@std@@V?$allocator@D@2@@2@@Z 00434d90 f i Psyja2Engine.obj
 0001:00033f00       ??0Psyja2TileManager@@QAE@XZ 00434f00 f   Psyja2TileManager.obj
 0001:00033f40       ??0TileManager@@QAE@HH@Z   00434f40 f i Psyja2TileManager.obj
 0001:00033fc0       ??1Psyja2TileManager@@QAE@XZ 00434fc0 f   Psyja2TileManager.obj
 0001:00033ff0       ??1TileManager@@QAE@XZ     00434ff0 f i Psyja2TileManager.obj
 0001:00034050       ?DrawTile@TileManager@@UBEXPAVBaseEngine@@PAUSDL_Surface@@HH@Z 00435050 f i Psyja2TileManager.obj
 0001:000340c0       ?DrawTile@TileManager@@UBEXPAVBaseEngine@@PAUSDL_Surface@@HHHH@Z 004350c0 f i Psyja2TileManager.obj
 0001:00034110       ?DrawTileAt@Psyja2TileManager@@UBEXPAVBaseEngine@@PAUSDL_Surface@@HHHH@Z 00435110 f   Psyja2TileManager.obj
 0001:00034270       ?GetTileHeight@TileManager@@QBEHXZ 00435270 f i Psyja2TileManager.obj
 0001:00034290       ?GetTileWidth@TileManager@@QBEHXZ 00435290 f i Psyja2TileManager.obj
 0001:000342b0       ?GetTiles@SpriteManager@@QAEAAV?$vector@PAVImageData@@V?$allocator@PAVImageData@@@std@@@std@@XZ 004352b0 f i Psyja2TileManager.obj
 0001:000342d0       ?GetValue@TileManager@@QBEHHH@Z 004352d0 f i Psyja2TileManager.obj
 0001:00034310       ??0Round@@QAE@H@Z          00435310 f   Round.obj
 0001:00034340       ??1Round@@QAE@XZ           00435340 f   Round.obj
 0001:00034360       ??$?8DD@std@@YA_NABV?$allocator@D@0@0@Z 00435360 f i RoundCompleteState.obj
 0001:00034380       ??$?8V?$allocator@D@std@@V01@@std@@YA_NABU?$_Wrap_alloc@V?$allocator@D@std@@@0@0@Z 00435380 f i RoundCompleteState.obj
 0001:000343c0       ??$?9V?$allocator@D@std@@V01@@std@@YA_NABU?$_Wrap_alloc@V?$allocator@D@std@@@0@0@Z 004353c0 f i RoundCompleteState.obj
 0001:00034410       ??$assign@V?$_String_iterator@V?$_String_val@U?$_Simple_types@D@std@@@std@@@std@@@?$basic_string@DU?$char_traits@D@std@@V?$allocator@D@2@@std@@QAEAAV01@V?$_String_iterator@V?$_String_val@U?$_Simple_types@D@std@@@std@@@1@0@Z 00435410 f i RoundCompleteState.obj
 0001:00034480       ??0RoundCompleteState@@QAE@PAVPsyja2Engine@@PAVPlayState@@1@Z 00435480 f   RoundCompleteState.obj
 0001:00034780       ??1RoundCompleteState@@QAE@XZ 00435780 f   RoundCompleteState.obj
 0001:000347d0       ??4?$basic_string@DU?$char_traits@D@std@@V?$allocator@D@2@@std@@QAEAAV01@$$QAV01@@Z 004357d0 f i RoundCompleteState.obj
 0001:000348b0       ??8?$_String_const_iterator@V?$_String_val@U?$_Simple_types@D@std@@@std@@@std@@QBE_NABV01@@Z 004358b0 f i RoundCompleteState.obj
 0001:00034900       ??G?$_String_const_iterator@V?$_String_val@U?$_Simple_types@D@std@@@std@@@std@@QBEHABV01@@Z 00435900 f i RoundCompleteState.obj
 0001:00034940       ??G?$_String_iterator@V?$_String_val@U?$_Simple_types@D@std@@@std@@@std@@QBEHABV?$_String_const_iterator@V?$_String_val@U?$_Simple_types@D@std@@@std@@@1@@Z 00435940 f i RoundCompleteState.obj
 0001:00034980       ?DrawStrings@RoundCompleteState@@UAEXXZ 00435980 f   RoundCompleteState.obj
 0001:000349b0       ?DrawStringsOnTop@RoundCompleteState@@UAEXXZ 004359b0 f   RoundCompleteState.obj
 0001:00034c90       ?GameAction@RoundCompleteState@@UAEXXZ 00435c90 f   RoundCompleteState.obj
 0001:00034d90       ?SetupBackgroundBuffer@RoundCompleteState@@UAEXXZ 00435d90 f   RoundCompleteState.obj
 0001:00034dc0       ?_Change_alloc@?$_String_alloc@$0A@U?$_String_base_types@DV?$allocator@D@std@@@std@@@std@@QAEXABU?$_Wrap_alloc@V?$allocator@D@std@@@2@@Z 00435dc0 f i RoundCompleteState.obj
 0001:00034de0       ?_Compat@?$_String_const_iterator@V?$_String_val@U?$_Simple_types@D@std@@@std@@@std@@QBEXABV12@@Z 00435de0 f i RoundCompleteState.obj
 0001:00034e00       ?_Pdif@?$basic_string@DU?$char_traits@D@std@@V?$allocator@D@2@@std@@SAIV?$_String_const_iterator@V?$_String_val@U?$_Simple_types@D@std@@@std@@@2@0@Z 00435e00 f i RoundCompleteState.obj
 0001:00034e40       ?end@?$basic_string@DU?$char_traits@D@std@@V?$allocator@D@2@@std@@QAE?AV?$_String_iterator@V?$_String_val@U?$_Simple_types@D@std@@@std@@@2@XZ 00435e40 f i RoundCompleteState.obj
 0001:00034e80       ?length@?$basic_string@DU?$char_traits@D@std@@V?$allocator@D@2@@std@@QBEIXZ 00435e80 f i RoundCompleteState.obj
 0001:00034ea0       ?replace@?$basic_string@DU?$char_traits@D@std@@V?$allocator@D@2@@std@@QAEAAV12@IIABV12@II@Z 00435ea0 f i RoundCompleteState.obj
 0001:00035210       ?replace@?$basic_string@DU?$char_traits@D@std@@V?$allocator@D@2@@std@@QAEAAV12@IIPBDI@Z 00436210 f i RoundCompleteState.obj
 0001:000353e0       ?replace@?$basic_string@DU?$char_traits@D@std@@V?$allocator@D@2@@std@@QAEAAV12@V?$_String_const_iterator@V?$_String_val@U?$_Simple_types@D@std@@@std@@@2@0V?$_String_iterator@V?$_String_val@U?$_Simple_types@D@std@@@std@@@2@1@Z 004363e0 f i RoundCompleteState.obj
 0001:000354d0       ??0SimpleShape@@QAE@PAVSimpleDemo@@@Z 004364d0 f i SimpleDemo.obj
 0001:00035620       ??1SimpleShape@@UAE@XZ     00436620 f i SimpleDemo.obj
 0001:00035650       ??_GSimpleShape@@UAEPAXI@Z 00436650 f i SimpleDemo.obj
 0001:00035650       ??_ESimpleShape@@UAEPAXI@Z 00436650 f i SimpleDemo.obj
 0001:000356a0       ?DoUpdate@SimpleShape@@UAEXH@Z 004366a0 f i SimpleDemo.obj
 0001:00035b20       ?Draw@SimpleShape@@UAEXXZ  00436b20 f i SimpleDemo.obj
 0001:00035bd0       ?DrawStringsOnTop@SimpleDemo@@UAEXXZ 00436bd0 f   SimpleDemo.obj
 0001:00035c80       ?DrawStringsUnderneath@SimpleDemo@@UAEXXZ 00436c80 f   SimpleDemo.obj
 0001:00035d20       ?GameAction@SimpleDemo@@UAEXXZ 00436d20 f   SimpleDemo.obj
 0001:00035d80       ?GetEngine@DisplayableObject@@QBEPAVBaseEngine@@XZ 00436d80 f i SimpleDemo.obj
 0001:00035da0       ?InitialiseObjects@SimpleDemo@@UAEHXZ 00436da0 f   SimpleDemo.obj
 0001:00035e80       ?KeyDown@SimpleDemo@@UAEXH@Z 00436e80 f   SimpleDemo.obj
 0001:00035ec0       ?MouseDown@SimpleDemo@@UAEXHHH@Z 00436ec0 f   SimpleDemo.obj
 0001:00035f00       ?SetBackgroundPixel@BaseEngine@@QAEXHHI@Z 00436f00 f i SimpleDemo.obj
 0001:00035fe0       ?SetExitWithCode@BaseEngine@@QAEXH@Z 00436fe0 f i SimpleDemo.obj
 0001:00036010       ?SetPixel@BaseEngine@@QAEXHHIPAUSDL_Surface@@@Z 00437010 f i SimpleDemo.obj
 0001:00036100       ?SetupBackgroundBuffer@SimpleDemo@@UAEXXZ 00437100 f   SimpleDemo.obj
 0001:00036290       ?UnDrawStrings@SimpleDemo@@UAEXXZ 00437290 f   SimpleDemo.obj
 0001:000362d0       ??$_Allocate@PAVImageData@@@std@@YAPAPAVImageData@@IPAPAV1@@Z 004372d0 f i SpriteManager.obj
 0001:00036330       ??$_Destroy_range@U?$_Wrap_alloc@V?$allocator@PAVImageData@@@std@@@std@@@std@@YAXPAPAVImageData@@0AAU?$_Wrap_alloc@V?$allocator@PAVImageData@@@std@@@0@@Z 00437330 f i SpriteManager.obj
 0001:00036380       ??$_Destroy_range@U?$_Wrap_alloc@V?$allocator@PAVImageData@@@std@@@std@@@std@@YAXPAPAVImageData@@0AAU?$_Wrap_alloc@V?$allocator@PAVImageData@@@std@@@0@U_Scalar_ptr_iterator_tag@0@@Z 00437380 f i SpriteManager.obj
 0001:000363a0       ??$_Ptr_cat@PAVImageData@@PAV1@@std@@YA?AU_Scalar_ptr_iterator_tag@0@PAPAVImageData@@0@Z 004373a0 f i SpriteManager.obj
 0001:000363c0       ??$_Rechecked@PAPAVImageData@@PAPAV1@@std@@YAAAPAPAVImageData@@AAPAPAV1@PAPAV1@@Z 004373c0 f i SpriteManager.obj
 0001:000363f0       ??$_Umove@PAPAVImageData@@@?$vector@PAVImageData@@V?$allocator@PAVImageData@@@std@@@std@@IAEPAPAVImageData@@PAPAV2@00@Z 004373f0 f i SpriteManager.obj
 0001:00036440       ??$_Unchecked@PAPAVImageData@@@std@@YAPAPAVImageData@@PAPAV1@@Z 00437440 f i SpriteManager.obj
 0001:00036460       ??$_Uninit_move@PAPAVImageData@@PAPAV1@U?$_Wrap_alloc@V?$allocator@PAVImageData@@@std@@@std@@@std@@YAPAPAVImageData@@PAPAV1@00AAU?$_Wrap_alloc@V?$allocator@PAVImageData@@@std@@@0@@Z 00437460 f i SpriteManager.obj
 0001:000364c0       ??$_Uninit_move@PAVImageData@@PAV1@PAV1@@std@@YAPAPAVImageData@@PAPAV1@00AAU?$_Wrap_alloc@V?$allocator@PAVImageData@@@std@@@0@0U_Scalar_ptr_iterator_tag@0@@Z 004374c0 f i SpriteManager.obj
 0001:00036510       ??$_Uninitialized_move@PAPAVImageData@@PAPAV1@U?$_Wrap_alloc@V?$allocator@PAVImageData@@@std@@@std@@@std@@YAPAPAVImageData@@PAPAV1@00AAU?$_Wrap_alloc@V?$allocator@PAVImageData@@@std@@@0@@Z 00437510 f i SpriteManager.obj
 0001:00036580       ??$_Val_type@PAPAVImageData@@@std@@YAPAPAVImageData@@PAPAV1@@Z 00437580 f i SpriteManager.obj
 0001:000365a0       ??$addressof@QAVImageData@@@std@@YAPBQAVImageData@@ABQAV1@@Z 004375a0 f i SpriteManager.obj
 0001:000365c0       ??$construct@PAVImageData@@AAPAV1@@?$_Wrap_alloc@V?$allocator@PAVImageData@@@std@@@std@@QAEXPAPAVImageData@@AAPAV2@@Z 004375c0 f i SpriteManager.obj
 0001:00036600       ??$construct@PAVImageData@@AAPAV1@@?$allocator@PAVImageData@@@std@@QAEXPAPAVImageData@@AAPAV2@@Z 00437600 f i SpriteManager.obj
 0001:000366b0       ??$construct@PAVImageData@@AAPAV1@@?$allocator_traits@V?$allocator@PAVImageData@@@std@@@std@@SAXAAV?$allocator@PAVImageData@@@1@PAPAVImageData@@AAPAV3@@Z 004376b0 f i SpriteManager.obj
 0001:000366f0       ??$construct@PAVImageData@@ABQAV1@@?$_Wrap_alloc@V?$allocator@PAVImageData@@@std@@@std@@QAEXPAPAVImageData@@ABQAV2@@Z 004376f0 f i SpriteManager.obj
 0001:00036730       ??$construct@PAVImageData@@ABQAV1@@?$allocator_traits@V?$allocator@PAVImageData@@@std@@@std@@SAXAAV?$allocator@PAVImageData@@@1@PAPAVImageData@@ABQAV3@@Z 00437730 f i SpriteManager.obj
 0001:00036770       ??$forward@AAPAVImageData@@@std@@YAAAPAVImageData@@AAPAV1@@Z 00437770 f i SpriteManager.obj
 0001:00036790       ??$forward@ABQAVImageData@@@std@@YAABQAVImageData@@ABQAV1@@Z 00437790 f i SpriteManager.obj
 0001:000367b0       ??0?$_Vector_const_iterator@V?$_Vector_val@U?$_Simple_types@PAVImageData@@@std@@@std@@@std@@QAE@PAPAVImageData@@PBU_Container_base0@1@@Z 004377b0 f i SpriteManager.obj
 0001:000367f0       ??0?$_Vector_iterator@V?$_Vector_val@U?$_Simple_types@PAVImageData@@@std@@@std@@@std@@QAE@PAPAVImageData@@PBU_Container_base0@1@@Z 004377f0 f i SpriteManager.obj
 0001:00036830       ??0?$_Wrap_alloc@V?$allocator@PAVImageData@@@std@@@std@@QAE@XZ 00437830 f i SpriteManager.obj
 0001:00036860       ??0SpriteManager@@QAE@XZ   00437860 f   SpriteManager.obj
 0001:00037030       ??1?$vector@PAVImageData@@V?$allocator@PAVImageData@@@std@@@std@@QAE@XZ 00438030 f i SpriteManager.obj
 0001:00037060       ??1SpriteManager@@QAE@XZ   00438060 f   SpriteManager.obj
 0001:000373d0       ??8?$_Vector_const_iterator@V?$_Vector_val@U?$_Simple_types@PAVImageData@@@std@@@std@@@std@@QBE_NABV01@@Z 004383d0 f i SpriteManager.obj
 0001:00037420       ??9?$_Vector_const_iterator@V?$_Vector_val@U?$_Simple_types@PAVImageData@@@std@@@std@@@std@@QBE_NABV01@@Z 00438420 f i SpriteManager.obj
 0001:00037470       ??D?$_Vector_const_iterator@V?$_Vector_val@U?$_Simple_types@PAVImageData@@@std@@@std@@@std@@QBEABQAVImageData@@XZ 00438470 f i SpriteManager.obj
 0001:00037490       ??D?$_Vector_iterator@V?$_Vector_val@U?$_Simple_types@PAVImageData@@@std@@@std@@@std@@QBEAAPAVImageData@@XZ 00438490 f i SpriteManager.obj
 0001:000374c0       ??E?$_Vector_const_iterator@V?$_Vector_val@U?$_Simple_types@PAVImageData@@@std@@@std@@@std@@QAEAAV01@XZ 004384c0 f i SpriteManager.obj
 0001:000374f0       ??E?$_Vector_iterator@V?$_Vector_val@U?$_Simple_types@PAVImageData@@@std@@@std@@@std@@QAEAAV01@XZ 004384f0 f i SpriteManager.obj
 0001:00037520       ??_G?$vector@PAVImageData@@V?$allocator@PAVImageData@@@std@@@std@@QAEPAXI@Z 00438520 f i SpriteManager.obj
 0001:00037570       ??_GImageData@@QAEPAXI@Z   00438570 f i SpriteManager.obj
 0001:000375c0       ?_Compat@?$_Vector_const_iterator@V?$_Vector_val@U?$_Simple_types@PAVImageData@@@std@@@std@@@std@@QBEXABV12@@Z 004385c0 f i SpriteManager.obj
 0001:000375e0       ?_Destroy@?$vector@PAVImageData@@V?$allocator@PAVImageData@@@std@@@std@@IAEXPAPAVImageData@@0@Z 004385e0 f i SpriteManager.obj
 0001:00037630       ?_Getal@?$_Vector_alloc@$0A@U?$_Vec_base_types@PAVImageData@@V?$allocator@PAVImageData@@@std@@@std@@@std@@QBE?AU?$_Wrap_alloc@V?$allocator@PAVImageData@@@std@@@2@XZ 00438630 f i SpriteManager.obj
 0001:00037660       ?_Grow_to@?$vector@PAVImageData@@V?$allocator@PAVImageData@@@std@@@std@@IBEII@Z 00438660 f i SpriteManager.obj
 0001:000376e0       ?_Inside@?$vector@PAVImageData@@V?$allocator@PAVImageData@@@std@@@std@@IBE_NPBQAVImageData@@@Z 004386e0 f i SpriteManager.obj
 0001:00037730       ?_Orphan_range@?$vector@PAVImageData@@V?$allocator@PAVImageData@@@std@@@std@@IBEXPAPAVImageData@@0@Z 00438730 f i SpriteManager.obj
 0001:00037750       ?_Reallocate@?$vector@PAVImageData@@V?$allocator@PAVImageData@@@std@@@std@@IAEXI@Z 00438750 f i SpriteManager.obj
 0001:000378e0       ?_Reserve@?$vector@PAVImageData@@V?$allocator@PAVImageData@@@std@@@std@@IAEXI@Z 004388e0 f i SpriteManager.obj
 0001:00037960       ?_Tidy@?$vector@PAVImageData@@V?$allocator@PAVImageData@@@std@@@std@@IAEXXZ 00438960 f i SpriteManager.obj
 0001:00037a00       ?_Unused_capacity@?$vector@PAVImageData@@V?$allocator@PAVImageData@@@std@@@std@@QBEIXZ 00438a00 f i SpriteManager.obj
 0001:00037a30       ?_Xlen@?$vector@PAVImageData@@V?$allocator@PAVImageData@@@std@@@std@@IBEXXZ 00438a30 f i SpriteManager.obj
 0001:00037a60       ?_Xran@?$vector@PAVImageData@@V?$allocator@PAVImageData@@@std@@@std@@IBEXXZ 00438a60 f i SpriteManager.obj
 0001:00037a90       ?allocate@?$_Wrap_alloc@V?$allocator@PAVImageData@@@std@@@std@@QAEPAPAVImageData@@I@Z 00438a90 f i SpriteManager.obj
 0001:00037ac0       ?allocate@?$allocator@PAVImageData@@@std@@QAEPAPAVImageData@@I@Z 00438ac0 f i SpriteManager.obj
 0001:00037af0       ?at@?$vector@PAVImageData@@V?$allocator@PAVImageData@@@std@@@std@@QAEAAPAVImageData@@I@Z 00438af0 f i SpriteManager.obj
 0001:00037b40       ?begin@?$vector@PAVImageData@@V?$allocator@PAVImageData@@@std@@@std@@QAE?AV?$_Vector_iterator@V?$_Vector_val@U?$_Simple_types@PAVImageData@@@std@@@std@@@2@XZ 00438b40 f i SpriteManager.obj
 0001:00037b80       ?capacity@?$vector@PAVImageData@@V?$allocator@PAVImageData@@@std@@@std@@QBEIXZ 00438b80 f i SpriteManager.obj
 0001:00037bb0       ?construct@?$allocator@PAVImageData@@@std@@QAEXPAPAVImageData@@ABQAV3@@Z 00438bb0 f i SpriteManager.obj
 0001:00037c10       ?deallocate@?$_Wrap_alloc@V?$allocator@PAVImageData@@@std@@@std@@QAEXPAPAVImageData@@I@Z 00438c10 f i SpriteManager.obj
 0001:00037c40       ?deallocate@?$allocator@PAVImageData@@@std@@QAEXPAPAVImageData@@I@Z 00438c40 f i SpriteManager.obj
 0001:00037c70       ?end@?$vector@PAVImageData@@V?$allocator@PAVImageData@@@std@@@std@@QAE?AV?$_Vector_iterator@V?$_Vector_val@U?$_Simple_types@PAVImageData@@@std@@@std@@@2@XZ 00438c70 f i SpriteManager.obj
 0001:00037cb0       ?max_size@?$_Wrap_alloc@V?$allocator@PAVImageData@@@std@@@std@@QBEIXZ 00438cb0 f i SpriteManager.obj
 0001:00037ce0       ?max_size@?$allocator@PAVImageData@@@std@@QBEIXZ 00438ce0 f i SpriteManager.obj
 0001:00037d00       ?max_size@?$allocator_traits@V?$allocator@PAVImageData@@@std@@@std@@SAIABV?$allocator@PAVImageData@@@2@@Z 00438d00 f i SpriteManager.obj
 0001:00037d20       ?max_size@?$vector@PAVImageData@@V?$allocator@PAVImageData@@@std@@@std@@QBEIXZ 00438d20 f i SpriteManager.obj
 0001:00037d50       ?push_back@?$vector@PAVImageData@@V?$allocator@PAVImageData@@@std@@@std@@QAEXABQAVImageData@@@Z 00438d50 f i SpriteManager.obj
 0001:00037ea0       ??0State@@QAE@PAVPsyja2Engine@@@Z 00438ea0 f   State.obj
 0001:00037ee0       ??1State@@QAE@XZ           00438ee0 f   State.obj
 0001:00037f10       ?DrawStrings@State@@UAEXXZ 00438f10 f   State.obj
 0001:00037f30       ?DrawStringsOnTop@State@@UAEXXZ 00438f30 f   State.obj
 0001:00037f50       ?GameAction@State@@UAEXXZ  00438f50 f   State.obj
 0001:00037f70       ?InitialiseObjects@State@@UAEHXZ 00438f70 f   State.obj
 0001:00037fc0       ?KeyDown@State@@UAEXH@Z    00438fc0 f   State.obj
 0001:00037fe0       ?MouseDown@State@@UAEXHHH@Z 00438fe0 f   State.obj
 0001:00038000       ?MouseMoved@State@@UAEXHH@Z 00439000 f   State.obj
 0001:00038020       ?SetupBackgroundBuffer@State@@UAEXXZ 00439020 f   State.obj
 0001:00038040       ?DrawAllTilesAt@TileManager@@QBEXPAVBaseEngine@@PAUSDL_Surface@@HHHHHH@Z 00439040 f   TileManager.obj
 0001:00038100       ?DrawTileAt@TileManager@@UBEXPAVBaseEngine@@PAUSDL_Surface@@HHHH@Z 00439100 f   TileManager.obj
 0001:000381a0       ?UpdateTileAt@TileManager@@QAEXPAVBaseEngine@@HHHHH@Z 004391a0 f   TileManager.obj
 0001:00038240       ??0BouncingBall1@@QAE@PAVBouncingBallMain@@HHHHPADHHPAVTileManager@@@Z 00439240 f   BouncingBall.obj
 0001:00038300       ??0BouncingBall2@@QAE@PAVBouncingBallMain@@HHHHPADHH@Z 00439300 f   BouncingBall.obj
 0001:000383b0       ??0BouncingBall@@QAE@PAVBouncingBallMain@@HHHHPADHH@Z 004393b0 f   BouncingBall.obj
 0001:00038520       ??0MovementPosition@@QAE@XZ 00439520 f i BouncingBall.obj
 0001:000385a0       ??1BouncingBall1@@UAE@XZ   004395a0 f i BouncingBall.obj
 0001:000385d0       ??1BouncingBall2@@UAE@XZ   004395d0 f i BouncingBall.obj
 0001:00038600       ??1BouncingBall@@UAE@XZ    00439600 f   BouncingBall.obj
 0001:00038630       ??_EBouncingBall1@@UAEPAXI@Z 00439630 f i BouncingBall.obj
 0001:00038630       ??_GBouncingBall1@@UAEPAXI@Z 00439630 f i BouncingBall.obj
 0001:00038680       ??_GBouncingBall2@@UAEPAXI@Z 00439680 f i BouncingBall.obj
 0001:00038680       ??_EBouncingBall2@@UAEPAXI@Z 00439680 f i BouncingBall.obj
 0001:000386d0       ??_GBouncingBall@@UAEPAXI@Z 004396d0 f i BouncingBall.obj
 0001:000386d0       ??_EBouncingBall@@UAEPAXI@Z 004396d0 f i BouncingBall.obj
 0001:00038720       ?Calculate@MovementPosition@@QAEXH@Z 00439720 f i BouncingBall.obj
 0001:00038820       ?DoUpdate@BouncingBall1@@UAEXH@Z 00439820 f   BouncingBall.obj
 0001:00038990       ?DoUpdate@BouncingBall2@@UAEXH@Z 00439990 f   BouncingBall.obj
 0001:00038de0       ?DoUpdate@BouncingBall@@UAEXH@Z 00439de0 f   BouncingBall.obj
 0001:00038e10       ?Draw@BouncingBall@@UAEXXZ 00439e10 f   BouncingBall.obj
 0001:00039150       ?GetTileXForPositionOnScreen@TileManager@@QBEHH@Z 0043a150 f i BouncingBall.obj
 0001:00039190       ?GetTileYForPositionOnScreen@TileManager@@QBEHH@Z 0043a190 f i BouncingBall.obj
 0001:000391d0       ?GetX@MovementPosition@@QBEHXZ 0043a1d0 f i BouncingBall.obj
 0001:000391f0       ?GetY@MovementPosition@@QBEHXZ 0043a1f0 f i BouncingBall.obj
 0001:00039210       ?HasMovementFinished@MovementPosition@@QBE_NH@Z 0043a210 f i BouncingBall.obj
 0001:00039250       ?IsValidTilePosition@TileManager@@QBE_NHH@Z 0043a250 f i BouncingBall.obj
 0001:000392e0       ?Reverse@MovementPosition@@QAEXXZ 0043a2e0 f i BouncingBall.obj
 0001:00039360       ?SetMovement@BouncingBall1@@QAEXHHHHHHH@Z 0043a360 f   BouncingBall.obj
 0001:000393f0       ?SetPosition@BouncingBall2@@QAEXNN@Z 0043a3f0 f   BouncingBall.obj
 0001:00039430       ?SetSpeed@BouncingBall2@@QAEXNN@Z 0043a430 f   BouncingBall.obj
 0001:00039470       ?Setup@MovementPosition@@QAEXHHHHHH@Z 0043a470 f i BouncingBall.obj
 0001:000394f0       ?UpdateTile@TileManager@@QAEXPAVBaseEngine@@HHH@Z 0043a4f0 f i BouncingBall.obj
 0001:00039560       ?DrawBackgroundLine@BaseEngine@@QAEXHHHHI@Z 0043a560 f i BouncingBallMain.obj
 0001:000395e0       ?DrawBackgroundPolygon@BaseEngine@@QAEXNNNNNNNNNNNNNNI@Z 0043a5e0 f i BouncingBallMain.obj
 0001:000396f0       ?DrawBackgroundPolygon@BaseEngine@@QAEXNNNNNNNNNNNNNNNNI@Z 0043a6f0 f i BouncingBallMain.obj
 0001:00039830       ?DrawBackgroundTriangle@BaseEngine@@QAEXHHHHHHI@Z 0043a830 f i BouncingBallMain.obj
 0001:000398d0       ?DrawBackgroundVerticalSidedRegion@BaseEngine@@QAEXNNNNNNI@Z 0043a8d0 f i BouncingBallMain.obj
 0001:00039970       ?DrawStrings@BouncingBallMain@@UAEXXZ 0043a970 f   BouncingBallMain.obj
 0001:000399d0       ?InitialiseObjects@BouncingBallMain@@UAEHXZ 0043a9d0 f   BouncingBallMain.obj
 0001:00039d10       ?KeyDown@BouncingBallMain@@UAEXH@Z 0043ad10 f   BouncingBallMain.obj
 0001:00039d50       ?MouseDown@BouncingBallMain@@UAEXHHH@Z 0043ad50 f   BouncingBallMain.obj
 0001:00039da0       ?SetupBackgroundBuffer@BouncingBallMain@@UAEXXZ 0043ada0 f   BouncingBallMain.obj
 0001:0003a690       ??0Demo1Main@@QAE@XZ       0043b690 f   Demo1Main.obj
 0001:0003a6d0       ??1Demo1Main@@UAE@XZ       0043b6d0 f   Demo1Main.obj
 0001:0003a700       ??_GDemo1Main@@UAEPAXI@Z   0043b700 f i Demo1Main.obj
 0001:0003a700       ??_EDemo1Main@@UAEPAXI@Z   0043b700 f i Demo1Main.obj
 0001:0003a750       ?SetupBackgroundBuffer@Demo1Main@@UAEXXZ 0043b750 f   Demo1Main.obj
 0001:0003a780       ??0Demo2Main@@QAE@XZ       0043b780 f   Demo2Main.obj
 0001:0003a810       ??1Demo2Main@@UAE@XZ       0043b810 f   Demo2Main.obj
 0001:0003a890       ??_EDemo2Main@@UAEPAXI@Z   0043b890 f i Demo2Main.obj
 0001:0003a890       ??_GDemo2Main@@UAEPAXI@Z   0043b890 f i Demo2Main.obj
 0001:0003a8e0       ?DrawStrings@Demo2Main@@UAEXXZ 0043b8e0 f   Demo2Main.obj
 0001:0003a940       ?GameAction@Demo2Main@@UAEXXZ 0043b940 f   Demo2Main.obj
 0001:0003a9a0       ?InitialiseObjects@Demo2Main@@UAEHXZ 0043b9a0 f   Demo2Main.obj
 0001:0003aaa0       ?IsTimeToAct@BaseEngine@@QBE_NXZ 0043baa0 f i Demo2Main.obj
 0001:0003aaf0       ?KeyDown@Demo2Main@@UAEXH@Z 0043baf0 f   Demo2Main.obj
 0001:0003ab30       ?MouseDown@Demo2Main@@UAEXHHH@Z 0043bb30 f   Demo2Main.obj
 0001:0003ab50       ?SetupBackgroundBuffer@Demo2Main@@UAEXXZ 0043bb50 f   Demo2Main.obj
 0001:0003ac40       ??0Demo2Object@@QAE@PAVDemo2Main@@@Z 0043bc40 f   Demo2Object.obj
 0001:0003ada0       ??1Demo2Object@@UAE@XZ     0043bda0 f   Demo2Object.obj
 0001:0003add0       ??_GDemo2Object@@UAEPAXI@Z 0043bdd0 f i Demo2Object.obj
 0001:0003add0       ??_EDemo2Object@@UAEPAXI@Z 0043bdd0 f i Demo2Object.obj
 0001:0003ae20       ?DoUpdate@Demo2Object@@UAEXH@Z 0043be20 f   Demo2Object.obj
 0001:0003af30       ?Draw@Demo2Object@@UAEXXZ  0043bf30 f   Demo2Object.obj
 0001:0003afb0       ??0Demo2TileManager@@QAE@XZ 0043bfb0 f   Demo2TileManager.obj
 0001:0003aff0       ??1Demo2TileManager@@QAE@XZ 0043bff0 f   Demo2TileManager.obj
 0001:0003b020       ?DrawTileAt@Demo2TileManager@@UAEXPAVBaseEngine@@PAUSDL_Surface@@HHHH@Z 0043c020 f   Demo2TileManager.obj
 0001:0003b0a0       ??0Demo3Main@@QAE@XZ       0043c0a0 f   Demo3Main.obj
 0001:0003b130       ??1Demo3Main@@UAE@XZ       0043c130 f   Demo3Main.obj
 0001:0003b1b0       ??_GDemo3Main@@UAEPAXI@Z   0043c1b0 f i Demo3Main.obj
 0001:0003b1b0       ??_EDemo3Main@@UAEPAXI@Z   0043c1b0 f i Demo3Main.obj
 0001:0003b200       ?DrawStrings@Demo3Main@@UAEXXZ 0043c200 f   Demo3Main.obj
 0001:0003b260       ?GameAction@Demo3Main@@UAEXXZ 0043c260 f   Demo3Main.obj
 0001:0003b2c0       ?InitialiseObjects@Demo3Main@@UAEHXZ 0043c2c0 f   Demo3Main.obj
 0001:0003b540       ?KeyDown@Demo3Main@@UAEXH@Z 0043c540 f   Demo3Main.obj
 0001:0003b580       ?MouseDown@Demo3Main@@UAEXHHH@Z 0043c580 f   Demo3Main.obj
 0001:0003b5a0       ?SetupBackgroundBuffer@Demo3Main@@UAEXXZ 0043c5a0 f   Demo3Main.obj
 0001:0003b790       ??0Demo3Object@@QAE@PAVDemo3Main@@HH@Z 0043c790 f   Demo3Object.obj
 0001:0003b8d0       ??1Demo3Object@@UAE@XZ     0043c8d0 f   Demo3Object.obj
 0001:0003b900       ??_GDemo3Object@@UAEPAXI@Z 0043c900 f i Demo3Object.obj
 0001:0003b900       ??_EDemo3Object@@UAEPAXI@Z 0043c900 f i Demo3Object.obj
 0001:0003b950       ?DoUpdate@Demo3Object@@UAEXH@Z 0043c950 f   Demo3Object.obj
 0001:0003bbe0       ?Draw@Demo3Object@@UAEXXZ  0043cbe0 f   Demo3Object.obj
 0001:0003bc70       ?GetTileManager@Demo3Main@@QAEAAVDemo3TileManager@@XZ 0043cc70 f i Demo3Object.obj
 0001:0003bc90       ?GetXDiffForDirection@Demo3Object@@QAEHH@Z 0043cc90 f i Demo3Object.obj
 0001:0003bd10       ?GetYDiffForDirection@Demo3Object@@QAEHH@Z 0043cd10 f i Demo3Object.obj
 0001:0003bd90       ??0Demo3ObjectFinished@@QAE@PAVDemo3Main@@HH@Z 0043cd90 f   Demo3ObjectFinished.obj
 0001:0003bed0       ??1Demo3ObjectFinished@@UAE@XZ 0043ced0 f   Demo3ObjectFinished.obj
 0001:0003bf00       ??_GDemo3ObjectFinished@@UAEPAXI@Z 0043cf00 f i Demo3ObjectFinished.obj
 0001:0003bf00       ??_EDemo3ObjectFinished@@UAEPAXI@Z 0043cf00 f i Demo3ObjectFinished.obj
 0001:0003bf50       ?DoUpdate@Demo3ObjectFinished@@UAEXH@Z 0043cf50 f   Demo3ObjectFinished.obj
 0001:0003c320       ?Draw@Demo3ObjectFinished@@UAEXXZ 0043d320 f   Demo3ObjectFinished.obj
 0001:0003c400       ?GetXDiffForDirection@Demo3ObjectFinished@@QAEHH@Z 0043d400 f i Demo3ObjectFinished.obj
 0001:0003c480       ?GetYDiffForDirection@Demo3ObjectFinished@@QAEHH@Z 0043d480 f i Demo3ObjectFinished.obj
 0001:0003c500       ??0Demo3TileManager@@QAE@XZ 0043d500 f   Demo3TileManager.obj
 0001:0003c540       ??1Demo3TileManager@@QAE@XZ 0043d540 f   Demo3TileManager.obj
 0001:0003c570       ?DrawTileAt@Demo3TileManager@@UBEXPAVBaseEngine@@PAUSDL_Surface@@HHHH@Z 0043d570 f   Demo3TileManager.obj
 0001:0003c760       ??0Demo4Main@@QAE@XZ       0043d760 f   Demo4Main.obj
 0001:0003c800       ??1Demo4Main@@UAE@XZ       0043d800 f   Demo4Main.obj
 0001:0003c880       ??_GDemo4Main@@UAEPAXI@Z   0043d880 f i Demo4Main.obj
 0001:0003c880       ??_EDemo4Main@@UAEPAXI@Z   0043d880 f i Demo4Main.obj
 0001:0003c8d0       ?DrawObjects@Demo4Main@@UAEXXZ 0043d8d0 f   Demo4Main.obj
 0001:0003c900       ?DrawStrings@Demo4Main@@UAEXXZ 0043d900 f   Demo4Main.obj
 0001:0003ca10       ?GameAction@Demo4Main@@UAEXXZ 0043da10 f   Demo4Main.obj
 0001:0003ca90       ?IncreaseTimeOffset@BaseEngine@@QAEXH@Z 0043da90 f i Demo4Main.obj
 0001:0003cac0       ?InitialiseObjects@Demo4Main@@UAEHXZ 0043dac0 f   Demo4Main.obj
 0001:0003cd40       ?KeyDown@Demo4Main@@UAEXH@Z 0043dd40 f   Demo4Main.obj
 0001:0003ce80       ?MouseDown@Demo4Main@@UAEXHHH@Z 0043de80 f   Demo4Main.obj
 0001:0003cea0       ?SetupBackgroundBuffer@Demo4Main@@UAEXXZ 0043dea0 f   Demo4Main.obj
 0001:0003d120       ?UndrawObjects@Demo4Main@@UAEXXZ 0043e120 f   Demo4Main.obj
 0001:0003d150       ??0Demo4Object@@QAE@PAVDemo4Main@@HH@Z 0043e150 f   Demo4Object.obj
 0001:0003d290       ??1Demo4Object@@UAE@XZ     0043e290 f   Demo4Object.obj
 0001:0003d2c0       ??_GDemo4Object@@UAEPAXI@Z 0043e2c0 f i Demo4Object.obj
 0001:0003d2c0       ??_EDemo4Object@@UAEPAXI@Z 0043e2c0 f i Demo4Object.obj
 0001:0003d310       ?DoUpdate@Demo4Object@@UAEXH@Z 0043e310 f   Demo4Object.obj
 0001:0003d8e0       ?Draw@Demo4Object@@UAEXXZ  0043e8e0 f   Demo4Object.obj
 0001:0003d9d0       ?GetTileManager@Demo4Main@@QAEAAVDemo4TileManager@@XZ 0043e9d0 f i Demo4Object.obj
 0001:0003d9f0       ?GetXDiffForDirection@Demo4Object@@QAEHH@Z 0043e9f0 f i Demo4Object.obj
 0001:0003da70       ?GetYDiffForDirection@Demo4Object@@QAEHH@Z 0043ea70 f i Demo4Object.obj
 0001:0003daf0       ??0Demo4TileManager@@QAE@XZ 0043eaf0 f   Demo4TileManager.obj
 0001:0003db30       ??1Demo4TileManager@@QAE@XZ 0043eb30 f   Demo4TileManager.obj
 0001:0003db60       ?DrawTileAt@Demo4TileManager@@UBEXPAVBaseEngine@@PAUSDL_Surface@@HHHH@Z 0043eb60 f   Demo4TileManager.obj
 0001:0003dd50       ??0TileObject@@QAE@PAVPlayState@@HH@Z 0043ed50 f   TileObject.obj
 0001:0003de10       ??1TileObject@@UAE@XZ      0043ee10 f   TileObject.obj
 0001:0003de40       ??_ETileObject@@UAEPAXI@Z  0043ee40 f i TileObject.obj
 0001:0003de40       ??_GTileObject@@UAEPAXI@Z  0043ee40 f i TileObject.obj
 0001:0003de90       ?getTilePosition@TileObject@@QAE?AUCoordinate@@XZ 0043ee90 f   TileObject.obj
 0001:0003def0       ?setTilePosition@TileObject@@QAEXHH@Z 0043eef0 f   TileObject.obj
 0001:0003df50       ??$_Allocate@UPolygon@@@std@@YAPAUPolygon@@IPAU1@@Z 0043ef50 f i ZombieObject.obj
 0001:0003dfb0       ??$_Rechecked@PAUPolygon@@PAU1@@std@@YAAAPAUPolygon@@AAPAU1@PAU1@@Z 0043efb0 f i ZombieObject.obj
 0001:0003dfe0       ??$_Umove@PAUPolygon@@@?$vector@UPolygon@@V?$allocator@UPolygon@@@std@@@std@@IAEPAUPolygon@@PAU2@00@Z 0043efe0 f i ZombieObject.obj
 0001:0003e030       ??$_Unchecked@PAUPolygon@@@std@@YAPAUPolygon@@PAU1@@Z 0043f030 f i ZombieObject.obj
 0001:0003e050       ??$_Uninit_move@PAUPolygon@@PAU1@U?$_Wrap_alloc@V?$allocator@UPolygon@@@std@@@std@@@std@@YAPAUPolygon@@PAU1@00AAU?$_Wrap_alloc@V?$allocator@UPolygon@@@std@@@0@@Z 0043f050 f i ZombieObject.obj
 0001:0003e0b0       ??$_Uninit_move@PAUPolygon@@PAU1@V?$allocator@UPolygon@@@std@@U1@@std@@YAPAUPolygon@@PAU1@00AAU?$_Wrap_alloc@V?$allocator@UPolygon@@@std@@@0@0U_Nonscalar_ptr_iterator_tag@0@@Z 0043f0b0 f i ZombieObject.obj
 0001:0003e1a0       ??$_Uninitialized_move@PAUPolygon@@PAU1@U?$_Wrap_alloc@V?$allocator@UPolygon@@@std@@@std@@@std@@YAPAUPolygon@@PAU1@00AAU?$_Wrap_alloc@V?$allocator@UPolygon@@@std@@@0@@Z 0043f1a0 f i ZombieObject.obj
 0001:0003e210       ??$_Val_type@PAUPolygon@@@std@@YAPAUPolygon@@PAU1@@Z 0043f210 f i ZombieObject.obj
 0001:0003e230       ??$addressof@UPolygon@@@std@@YAPAUPolygon@@AAU1@@Z 0043f230 f i ZombieObject.obj
 0001:0003e250       ??$construct@UPolygon@@U1@@?$_Wrap_alloc@V?$allocator@UPolygon@@@std@@@std@@QAEXPAUPolygon@@$$QAU2@@Z 0043f250 f i ZombieObject.obj
 0001:0003e290       ??$construct@UPolygon@@U1@@?$allocator@UPolygon@@@std@@QAEXPAUPolygon@@$$QAU2@@Z 0043f290 f i ZombieObject.obj
 0001:0003e350       ??$construct@UPolygon@@U1@@?$allocator_traits@V?$allocator@UPolygon@@@std@@@std@@SAXAAV?$allocator@UPolygon@@@1@PAUPolygon@@$$QAU3@@Z 0043f350 f i ZombieObject.obj
 0001:0003e390       ??$forward@UPolygon@@@std@@YA$$QAUPolygon@@AAU1@@Z 0043f390 f i ZombieObject.obj
 0001:0003e3b0       ??$forward@V?$vector@UPolygon@@V?$allocator@UPolygon@@@std@@@std@@@std@@YA$$QAV?$vector@UPolygon@@V?$allocator@UPolygon@@@std@@@0@AAV10@@Z 0043f3b0 f i ZombieObject.obj
 0001:0003e3d0       ??0?$_List_const_iterator@V?$_List_val@U?$_List_simple_types@UCoordinate@@@std@@@std@@@std@@QAE@PAU?$_List_node@UCoordinate@@PAX@1@PBV?$_List_val@U?$_List_simple_types@UCoordinate@@@std@@@1@@Z 0043f3d0 f i ZombieObject.obj
 0001:0003e410       ??0?$_List_iterator@V?$_List_val@U?$_List_simple_types@UCoordinate@@@std@@@std@@@std@@QAE@PAU?$_List_node@UCoordinate@@PAX@1@PBV?$_List_val@U?$_List_simple_types@UCoordinate@@@std@@@1@@Z 0043f410 f i ZombieObject.obj
 0001:0003e450       ??0?$_Vector_alloc@$0A@U?$_Vec_base_types@UPolygon@@V?$allocator@UPolygon@@@std@@@std@@@std@@QAE@ABV?$allocator@UPolygon@@@1@@Z 0043f450 f i ZombieObject.obj
 0001:0003e480       ??0?$_Vector_val@U?$_Simple_types@UPolygon@@@std@@@std@@QAE@XZ 0043f480 f i ZombieObject.obj
 0001:0003e4c0       ??0?$vector@UPolygon@@V?$allocator@UPolygon@@@std@@@std@@QAE@$$QAV01@@Z 0043f4c0 f i ZombieObject.obj
 0001:0003e520       ??0?$vector@UPolygon@@V?$allocator@UPolygon@@@std@@@std@@QAE@XZ 0043f520 f i ZombieObject.obj
 0001:0003e550       ??0ZombieObject@@QAE@PAVPlayState@@HHH@Z 0043f550 f   ZombieObject.obj
 0001:0003e6a0       ??1ZombieObject@@UAE@XZ    0043f6a0 f   ZombieObject.obj
 0001:0003e6e0       ??4?$list@UCoordinate@@V?$allocator@UCoordinate@@@std@@@std@@QAEAAV01@$$QAV01@@Z 0043f6e0 f i ZombieObject.obj
 0001:0003e750       ??A?$vector@UZombieColor@@V?$allocator@UZombieColor@@@std@@@std@@QAEAAUZombieColor@@I@Z 0043f750 f i ZombieObject.obj
 0001:0003e780       ??D?$_List_const_iterator@V?$_List_val@U?$_List_simple_types@UCoordinate@@@std@@@std@@@std@@QBEABUCoordinate@@XZ 0043f780 f i ZombieObject.obj
 0001:0003e7b0       ??D?$_List_iterator@V?$_List_val@U?$_List_simple_types@UCoordinate@@@std@@@std@@@std@@QBEAAUCoordinate@@XZ 0043f7b0 f i ZombieObject.obj
 0001:0003e7e0       ??E?$_List_const_iterator@V?$_List_val@U?$_List_simple_types@UCoordinate@@@std@@@std@@@std@@QAE?AV01@H@Z 0043f7e0 f i ZombieObject.obj
 0001:0003e820       ??E?$_List_const_iterator@V?$_List_val@U?$_List_simple_types@UCoordinate@@@std@@@std@@@std@@QAEAAV01@XZ 0043f820 f i ZombieObject.obj
 0001:0003e860       ??_EZombieObject@@UAEPAXI@Z 0043f860 f i ZombieObject.obj
 0001:0003e860       ??_GZombieObject@@UAEPAXI@Z 0043f860 f i ZombieObject.obj
 0001:0003e8b0       ?DoUpdate@ZombieObject@@UAEXH@Z 0043f8b0 f   ZombieObject.obj
 0001:0003efc0       ?DoZombieUpdate@ZombieObject@@UAEXXZ 0043ffc0 f   ZombieObject.obj
 0001:0003efe0       ?Draw@ZombieObject@@UAEXXZ 0043ffe0 f   ZombieObject.obj
 0001:0003fc60       ?GetBounds@ZombieObject@@QAE?AV?$vector@UPolygon@@V?$allocator@UPolygon@@@std@@@std@@XZ 00440c60 f   ZombieObject.obj
 0001:000409b0       ?GetColorOptions@ZombieObject@@UAE?AV?$vector@UZombieColor@@V?$allocator@UZombieColor@@@std@@@std@@XZ 004419b0 f   ZombieObject.obj
 0001:00040a90       ?GetHealth@ZombieObject@@QAEHXZ 00441a90 f   ZombieObject.obj
 0001:00040ab0       ?MovedTile@ZombieObject@@UAEXHH@Z 00441ab0 f   ZombieObject.obj
 0001:00040ad0       ?ReachedGoal@ZombieObject@@UAEXXZ 00441ad0 f   ZombieObject.obj
 0001:00040af0       ?SetGoal@ZombieObject@@QAEXPAVTileObject@@@Z 00441af0 f   ZombieObject.obj
 0001:00040b40       ?SetHealth@ZombieObject@@QAEXH@Z 00441b40 f   ZombieObject.obj
 0001:00040b70       ?_Assign_rv@?$vector@UPolygon@@V?$allocator@UPolygon@@@std@@@std@@QAEX$$QAV12@U?$integral_constant@_N$00@2@@Z 00441b70 f i ZombieObject.obj
 0001:00040bf0       ?_Change_alloc@?$_List_alloc@$0A@U?$_List_base_types@UCoordinate@@V?$allocator@UCoordinate@@@std@@@std@@@std@@QAEXABU?$_Wrap_alloc@V?$allocator@U?$_List_node@UCoordinate@@PAX@std@@@std@@@2@@Z 00441bf0 f i ZombieObject.obj
 0001:00040c10       ?_Grow_to@?$vector@UPolygon@@V?$allocator@UPolygon@@@std@@@std@@IBEII@Z 00441c10 f i ZombieObject.obj
 0001:00040c90       ?_Inside@?$vector@UPolygon@@V?$allocator@UPolygon@@@std@@@std@@IBE_NPBUPolygon@@@Z 00441c90 f i ZombieObject.obj
 0001:00040ce0       ?_Make_iter@?$list@UCoordinate@@V?$allocator@UCoordinate@@@std@@@std@@QBE?AV?$_List_iterator@V?$_List_val@U?$_List_simple_types@UCoordinate@@@std@@@std@@@2@V?$_List_const_iterator@V?$_List_val@U?$_List_simple_types@UCoordinate@@@std@@@std@@@2@@Z 00441ce0 f i ZombieObject.obj
 0001:00040d20       ?_Orphan_range@?$vector@UPolygon@@V?$allocator@UPolygon@@@std@@@std@@IBEXPAUPolygon@@0@Z 00441d20 f i ZombieObject.obj
 0001:00040d40       ?_Reallocate@?$vector@UPolygon@@V?$allocator@UPolygon@@@std@@@std@@IAEXI@Z 00441d40 f i ZombieObject.obj
 0001:00040ed0       ?_Reserve@?$vector@UPolygon@@V?$allocator@UPolygon@@@std@@@std@@IAEXI@Z 00441ed0 f i ZombieObject.obj
 0001:00040f50       ?_Unlinknode@?$list@UCoordinate@@V?$allocator@UCoordinate@@@std@@@std@@QAEPAU?$_List_node@UCoordinate@@PAX@2@V?$_List_const_iterator@V?$_List_val@U?$_List_simple_types@UCoordinate@@@std@@@std@@@2@@Z 00441f50 f i ZombieObject.obj
 0001:00041000       ?_Unused_capacity@?$vector@UPolygon@@V?$allocator@UPolygon@@@std@@@std@@QBEIXZ 00442000 f i ZombieObject.obj
 0001:00041030       ?_Xlen@?$vector@UPolygon@@V?$allocator@UPolygon@@@std@@@std@@IBEXXZ 00442030 f i ZombieObject.obj
 0001:00041060       ?allocate@?$_Wrap_alloc@V?$allocator@UPolygon@@@std@@@std@@QAEPAUPolygon@@I@Z 00442060 f i ZombieObject.obj
 0001:00041090       ?allocate@?$allocator@UPolygon@@@std@@QAEPAUPolygon@@I@Z 00442090 f i ZombieObject.obj
 0001:000410c0       ?begin@?$list@UCoordinate@@V?$allocator@UCoordinate@@@std@@@std@@QAE?AV?$_List_iterator@V?$_List_val@U?$_List_simple_types@UCoordinate@@@std@@@std@@@2@XZ 004420c0 f i ZombieObject.obj
 0001:00041110       ?capacity@?$vector@UPolygon@@V?$allocator@UPolygon@@@std@@@std@@QBEIXZ 00442110 f i ZombieObject.obj
 0001:00041140       ?erase@?$list@UCoordinate@@V?$allocator@UCoordinate@@@std@@@std@@QAE?AV?$_List_iterator@V?$_List_val@U?$_List_simple_types@UCoordinate@@@std@@@std@@@2@V?$_List_const_iterator@V?$_List_val@U?$_List_simple_types@UCoordinate@@@std@@@std@@@2@@Z 00442140 f i ZombieObject.obj
 0001:000411b0       ?front@?$list@UCoordinate@@V?$allocator@UCoordinate@@@std@@@std@@QAEAAUCoordinate@@XZ 004421b0 f i ZombieObject.obj
 0001:000411e0       ?max_size@?$_Wrap_alloc@V?$allocator@UPolygon@@@std@@@std@@QBEIXZ 004421e0 f i ZombieObject.obj
 0001:00041210       ?max_size@?$allocator@UPolygon@@@std@@QBEIXZ 00442210 f i ZombieObject.obj
 0001:00041230       ?max_size@?$allocator_traits@V?$allocator@UPolygon@@@std@@@std@@SAIABV?$allocator@UPolygon@@@2@@Z 00442230 f i ZombieObject.obj
 0001:00041250       ?max_size@?$vector@UPolygon@@V?$allocator@UPolygon@@@std@@@std@@QBEIXZ 00442250 f i ZombieObject.obj
 0001:00041280       ?pop_front@?$list@UCoordinate@@V?$allocator@UCoordinate@@@std@@@std@@QAEXXZ 00442280 f i ZombieObject.obj
 0001:000412d0       ?push_back@?$vector@UPolygon@@V?$allocator@UPolygon@@@std@@@std@@QAEX$$QAUPolygon@@@Z 004422d0 f i ZombieObject.obj
 0001:00041440       ?size@?$list@UCoordinate@@V?$allocator@UCoordinate@@@std@@@std@@QBEIXZ 00442440 f i ZombieObject.obj
 0001:00041460       ?size@?$vector@UPolygon@@V?$allocator@UPolygon@@@std@@@std@@QBEIXZ 00442460 f i ZombieObject.obj
 0001:00041490       _SDL_Delay                 00442490 f   SDL2:SDL2.dll
 0001:00041496       _SDL_GetError              00442496 f   SDL2:SDL2.dll
 0001:0004149c       _SDL_CreateRGBSurface      0044249c f   SDL2:SDL2.dll
 0001:000414a2       _SDL_FreeSurface           004424a2 f   SDL2:SDL2.dll
 0001:000414a8       _SDL_LockSurface           004424a8 f   SDL2:SDL2.dll
 0001:000414ae       _SDL_UnlockSurface         004424ae f   SDL2:SDL2.dll
 0001:000414b4       _SDL_FillRect              004424b4 f   SDL2:SDL2.dll
 0001:000414ba       _SDL_UpperBlit             004424ba f   SDL2:SDL2.dll
 0001:000414c0       _SDL_CreateWindow          004424c0 f   SDL2:SDL2.dll
 0001:000414c6       _SDL_PollEvent             004424c6 f   SDL2:SDL2.dll
 0001:000414cc       _SDL_CreateRenderer        004424cc f   SDL2:SDL2.dll
 0001:000414d2       _SDL_CreateTexture         004424d2 f   SDL2:SDL2.dll
 0001:000414d8       _SDL_UpdateTexture         004424d8 f   SDL2:SDL2.dll
 0001:000414de       _SDL_RenderCopy            004424de f   SDL2:SDL2.dll
 0001:000414e4       _SDL_RenderPresent         004424e4 f   SDL2:SDL2.dll
 0001:000414ea       _SDL_GetTicks              004424ea f   SDL2:SDL2.dll
 0001:000414f0       _SDL_Init                  004424f0 f   SDL2:SDL2.dll
 0001:000414f6       _SDL_Quit                  004424f6 f   SDL2:SDL2.dll
 0001:000414fc       _IMG_Load                  004424fc f   SDL2_image:SDL2_image.dll
 0001:00041502       _TTF_Init                  00442502 f   SDL2_ttf:SDL2_ttf.dll
 0001:00041508       _TTF_RenderText_Solid      00442508 f   SDL2_ttf:SDL2_ttf.dll
 0001:0004150e       _TTF_Quit                  0044250e f   SDL2_ttf:SDL2_ttf.dll
 0001:00041514       _TTF_OpenFont              00442514 f   SDL2_ttf:SDL2_ttf.dll
 0001:0004151a       _TTF_CloseFont             0044251a f   SDL2_ttf:SDL2_ttf.dll
 0001:00041520       ?_Orphan_all@_Container_base0@std@@QAEXXZ 00442520 f   msvcprt:MSVCP120.dll
 0001:00041526       ?_Xbad_alloc@std@@YAXXZ    00442526 f   msvcprt:MSVCP120.dll
 0001:0004152c       ?_Xlength_error@std@@YAXPBD@Z 0044252c f   msvcprt:MSVCP120.dll
 0001:00041532       ?_Xout_of_range@std@@YAXPBD@Z 00442532 f   msvcprt:MSVCP120.dll
 0001:00041538       ??0id@locale@std@@QAE@I@Z  00442538 f   msvcprt:MSVCP120.dll
 0001:0004153e       ?_Syserror_map@std@@YAPBDH@Z 0044253e f   msvcprt:MSVCP120.dll
 0001:00041544       ?_Winerror_map@std@@YAPBDH@Z 00442544 f   msvcprt:MSVCP120.dll
 0001:0004154a       ?_Swap_all@_Container_base0@std@@QAEXAAU12@@Z 0044254a f   msvcprt:MSVCP120.dll
 0001:00041550       ?uncaught_exception@std@@YA_NXZ 00442550 f   msvcprt:MSVCP120.dll
 0001:00041556       ?good@ios_base@std@@QBE_NXZ 00442556 f   msvcprt:MSVCP120.dll
 0001:0004155c       ?flags@ios_base@std@@QBEHXZ 0044255c f   msvcprt:MSVCP120.dll
 0001:00041562       ?width@ios_base@std@@QBE_JXZ 00442562 f   msvcprt:MSVCP120.dll
 0001:00041568       ?width@ios_base@std@@QAE_J_J@Z 00442568 f   msvcprt:MSVCP120.dll
 0001:0004156e       ??0?$basic_streambuf@DU?$char_traits@D@std@@@std@@IAE@XZ 0044256e f   msvcprt:MSVCP120.dll
 0001:00041574       ??1?$basic_streambuf@DU?$char_traits@D@std@@@std@@UAE@XZ 00442574 f   msvcprt:MSVCP120.dll
 0001:0004157a       ?sputc@?$basic_streambuf@DU?$char_traits@D@std@@@std@@QAEHD@Z 0044257a f   msvcprt:MSVCP120.dll
 0001:00041580       ?sputn@?$basic_streambuf@DU?$char_traits@D@std@@@std@@QAE_JPBD_J@Z 00442580 f   msvcprt:MSVCP120.dll
 0001:00041586       ?eback@?$basic_streambuf@DU?$char_traits@D@std@@@std@@IBEPADXZ 00442586 f   msvcprt:MSVCP120.dll
 0001:0004158c       ?gptr@?$basic_streambuf@DU?$char_traits@D@std@@@std@@IBEPADXZ 0044258c f   msvcprt:MSVCP120.dll
 0001:00041592       ?pbase@?$basic_streambuf@DU?$char_traits@D@std@@@std@@IBEPADXZ 00442592 f   msvcprt:MSVCP120.dll
 0001:00041598       ?pptr@?$basic_streambuf@DU?$char_traits@D@std@@@std@@IBEPADXZ 00442598 f   msvcprt:MSVCP120.dll
 0001:0004159e       ?egptr@?$basic_streambuf@DU?$char_traits@D@std@@@std@@IBEPADXZ 0044259e f   msvcprt:MSVCP120.dll
 0001:000415a4       ?gbump@?$basic_streambuf@DU?$char_traits@D@std@@@std@@IAEXH@Z 004425a4 f   msvcprt:MSVCP120.dll
 0001:000415aa       ?setg@?$basic_streambuf@DU?$char_traits@D@std@@@std@@IAEXPAD00@Z 004425aa f   msvcprt:MSVCP120.dll
 0001:000415b0       ?epptr@?$basic_streambuf@DU?$char_traits@D@std@@@std@@IBEPADXZ 004425b0 f   msvcprt:MSVCP120.dll
 0001:000415b6       ?pbump@?$basic_streambuf@DU?$char_traits@D@std@@@std@@IAEXH@Z 004425b6 f   msvcprt:MSVCP120.dll
 0001:000415bc       ?setp@?$basic_streambuf@DU?$char_traits@D@std@@@std@@IAEXPAD0@Z 004425bc f   msvcprt:MSVCP120.dll
 0001:000415c2       ?setp@?$basic_streambuf@DU?$char_traits@D@std@@@std@@IAEXPAD00@Z 004425c2 f   msvcprt:MSVCP120.dll
 0001:000415c8       ?_Pninc@?$basic_streambuf@DU?$char_traits@D@std@@@std@@IAEPADXZ 004425c8 f   msvcprt:MSVCP120.dll
 0001:000415ce       ??1?$basic_ios@DU?$char_traits@D@std@@@std@@UAE@XZ 004425ce f   msvcprt:MSVCP120.dll
 0001:000415d4       ?setstate@?$basic_ios@DU?$char_traits@D@std@@@std@@QAEXH_N@Z 004425d4 f   msvcprt:MSVCP120.dll
 0001:000415da       ?tie@?$basic_ios@DU?$char_traits@D@std@@@std@@QBEPAV?$basic_ostream@DU?$char_traits@D@std@@@2@XZ 004425da f   msvcprt:MSVCP120.dll
 0001:000415e0       ?rdbuf@?$basic_ios@DU?$char_traits@D@std@@@std@@QBEPAV?$basic_streambuf@DU?$char_traits@D@std@@@2@XZ 004425e0 f   msvcprt:MSVCP120.dll
 0001:000415e6       ?fill@?$basic_ios@DU?$char_traits@D@std@@@std@@QBEDXZ 004425e6 f   msvcprt:MSVCP120.dll
 0001:000415ec       ??0?$basic_ios@DU?$char_traits@D@std@@@std@@IAE@XZ 004425ec f   msvcprt:MSVCP120.dll
 0001:000415f2       ??0?$basic_ostream@DU?$char_traits@D@std@@@std@@QAE@PAV?$basic_streambuf@DU?$char_traits@D@std@@@1@_N@Z 004425f2 f   msvcprt:MSVCP120.dll
 0001:000415f8       ??1?$basic_ostream@DU?$char_traits@D@std@@@std@@UAE@XZ 004425f8 f   msvcprt:MSVCP120.dll
 0001:000415fe       ?_Osfx@?$basic_ostream@DU?$char_traits@D@std@@@std@@QAEXXZ 004425fe f   msvcprt:MSVCP120.dll
 0001:00041604       ?flush@?$basic_ostream@DU?$char_traits@D@std@@@std@@QAEAAV12@XZ 00442604 f   msvcprt:MSVCP120.dll
 0001:0004160a       ?_Lock@?$basic_streambuf@DU?$char_traits@D@std@@@std@@UAEXXZ 0044260a f   msvcprt:MSVCP120.dll
 0001:00041610       ?_Unlock@?$basic_streambuf@DU?$char_traits@D@std@@@std@@UAEXXZ 00442610 f   msvcprt:MSVCP120.dll
 0001:00041616       ?imbue@?$basic_streambuf@DU?$char_traits@D@std@@@std@@MAEXABVlocale@2@@Z 00442616 f   msvcprt:MSVCP120.dll
 0001:0004161c       ?setbuf@?$basic_streambuf@DU?$char_traits@D@std@@@std@@MAEPAV12@PAD_J@Z 0044261c f   msvcprt:MSVCP120.dll
 0001:00041622       ?showmanyc@?$basic_streambuf@DU?$char_traits@D@std@@@std@@MAE_JXZ 00442622 f   msvcprt:MSVCP120.dll
 0001:00041628       ?sync@?$basic_streambuf@DU?$char_traits@D@std@@@std@@MAEHXZ 00442628 f   msvcprt:MSVCP120.dll
 0001:0004162e       ?uflow@?$basic_streambuf@DU?$char_traits@D@std@@@std@@MAEHXZ 0044262e f   msvcprt:MSVCP120.dll
 0001:00041634       ?xsgetn@?$basic_streambuf@DU?$char_traits@D@std@@@std@@MAE_JPAD_J@Z 00442634 f   msvcprt:MSVCP120.dll
 0001:0004163a       ?xsputn@?$basic_streambuf@DU?$char_traits@D@std@@@std@@MAE_JPBD_J@Z 0044263a f   msvcprt:MSVCP120.dll
 0001:00041640       ??_U@YAPAXI@Z              00442640 f   msvcprt:newaop_s.obj
 0001:0004164a       ??0_Lockit@std@@QAE@H@Z    0044264a f   msvcprt:MSVCP120.dll
 0001:00041650       ??1_Lockit@std@@QAE@XZ     00442650 f   msvcprt:MSVCP120.dll
 0001:00041656       ??0_Fac_node@std@@QAE@PAU01@PAV_Facet_base@1@@Z 00442656 f i msvcprt:locale0_implib.obj
 0001:0004166a       ??1_Fac_node@std@@QAE@XZ   0044266a f i msvcprt:locale0_implib.obj
 0001:0004167f       ??1_Fac_tidy_reg_t@std@@QAE@XZ 0044267f f i msvcprt:locale0_implib.obj
 0001:000416a3       ??_G_Fac_node@std@@QAEPAXI@Z 004426a3 f i msvcprt:locale0_implib.obj
 0001:000416c2       ?_Facet_Register@std@@YAXPAV_Facet_base@1@@Z 004426c2 f   msvcprt:locale0_implib.obj
 0001:000416ea       ??Bid@locale@std@@QAEIXZ   004426ea f   msvcprt:MSVCP120.dll
 0001:000416f0       ?_Getgloballocale@locale@std@@CAPAV_Locimp@12@XZ 004426f0 f   msvcprt:MSVCP120.dll
 0001:000416f6       ?always_noconv@codecvt_base@std@@QBE_NXZ 004426f6 f   msvcprt:MSVCP120.dll
 0001:000416fc       ?in@?$codecvt@DDH@std@@QBEHAAHPBD1AAPBDPAD3AAPAD@Z 004426fc f   msvcprt:MSVCP120.dll
 0001:00041702       ?out@?$codecvt@DDH@std@@QBEHAAHPBD1AAPBDPAD3AAPAD@Z 00442702 f   msvcprt:MSVCP120.dll
 0001:00041708       ?unshift@?$codecvt@DDH@std@@QBEHAAHPAD1AAPAD@Z 00442708 f   msvcprt:MSVCP120.dll
 0001:0004170e       ?_Getcat@?$codecvt@DDH@std@@SAIPAPBVfacet@locale@2@PBV42@@Z 0044270e f   msvcprt:MSVCP120.dll
 0001:00041714       ??Bios_base@std@@QBE_NXZ   00442714 f   msvcprt:MSVCP120.dll
 0001:0004171a       ?getloc@?$basic_streambuf@DU?$char_traits@D@std@@@std@@QBE?AVlocale@2@XZ 0044271a f   msvcprt:MSVCP120.dll
 0001:00041720       ?sbumpc@?$basic_streambuf@DU?$char_traits@D@std@@@std@@QAEHXZ 00442720 f   msvcprt:MSVCP120.dll
 0001:00041726       ?sgetc@?$basic_streambuf@DU?$char_traits@D@std@@@std@@QAEHXZ 00442726 f   msvcprt:MSVCP120.dll
 0001:0004172c       ?snextc@?$basic_streambuf@DU?$char_traits@D@std@@@std@@QAEHXZ 0044272c f   msvcprt:MSVCP120.dll
 0001:00041732       ?_Gndec@?$basic_streambuf@DU?$char_traits@D@std@@@std@@IAEPADXZ 00442732 f   msvcprt:MSVCP120.dll
 0001:00041738       ?_Gninc@?$basic_streambuf@DU?$char_traits@D@std@@@std@@IAEPADXZ 00442738 f   msvcprt:MSVCP120.dll
 0001:0004173e       ?_Init@?$basic_streambuf@DU?$char_traits@D@std@@@std@@IAEXXZ 0044273e f   msvcprt:MSVCP120.dll
 0001:00041744       ?_Init@?$basic_streambuf@DU?$char_traits@D@std@@@std@@IAEXPAPAD0PAH001@Z 00442744 f   msvcprt:MSVCP120.dll
 0001:0004174a       ?widen@?$basic_ios@DU?$char_traits@D@std@@@std@@QBEDD@Z 0044274a f   msvcprt:MSVCP120.dll
 0001:00041750       ??0?$basic_istream@DU?$char_traits@D@std@@@std@@QAE@PAV?$basic_streambuf@DU?$char_traits@D@std@@@1@_N@Z 00442750 f   msvcprt:MSVCP120.dll
 0001:00041756       ??1?$basic_istream@DU?$char_traits@D@std@@@std@@UAE@XZ 00442756 f   msvcprt:MSVCP120.dll
 0001:0004175c       ?_Ipfx@?$basic_istream@DU?$char_traits@D@std@@@std@@QAE_N_N@Z 0044275c f   msvcprt:MSVCP120.dll
 0001:00041762       ?_Fiopen@std@@YAPAU_iobuf@@PBDHH@Z 00442762 f   msvcprt:MSVCP120.dll
 0001:00041768       ??0_Container_base12@std@@QAE@XZ 00442768 f   msvcprt:MSVCP120.dll
 0001:0004176e       ??1_Container_base12@std@@QAE@XZ 0044276e f   msvcprt:MSVCP120.dll
 0001:00041774       ?_Orphan_all@_Container_base12@std@@QAEXXZ 00442774 f   msvcprt:MSVCP120.dll
 0001:0004187e       _NtCurrentTeb              0044287e f i MSVCRT:crtexe.obj
 0001:00041a30       _mainCRTStartup            00442a30 f   MSVCRT:crtexe.obj
 0001:00041a3a       __purecall                 00442a3a f   MSVCRT:MSVCR120.dll
 0001:00041a40       ??2@YAPAXI@Z               00442a40 f   MSVCRT:MSVCR120.dll
 0001:00041a46       ??3@YAXPAX@Z               00442a46 f   MSVCRT:MSVCR120.dll
 0001:00041a4c       ___atonexitinit            00442a4c f   MSVCRT:atonexit.obj
 0001:00041a88       __onexit                   00442a88 f   MSVCRT:atonexit.obj
 0001:00041b31       _atexit                    00442b31 f   MSVCRT:atonexit.obj
 0001:00041b46       _memcpy                    00442b46 f   MSVCRT:MSVCR120.dll
 0001:00041b4c       _strlen                    00442b4c f   MSVCRT:MSVCR120.dll
 0001:00041b52       _memmove                   00442b52 f   MSVCRT:MSVCR120.dll
 0001:00041b58       _cos                       00442b58 f   MSVCRT:MSVCR120.dll
 0001:00041b5e       _round                     00442b5e f   MSVCRT:MSVCR120.dll
 0001:00041b64       _sin                       00442b64 f   MSVCRT:MSVCR120.dll
 0001:00041b6a       __hypot                    00442b6a f   MSVCRT:MSVCR120.dll
 0001:00041b70       @__security_check_cookie@4 00442b70 f   MSVCRT:secchk.obj
 0001:00041b80       __CxxThrowException@8      00442b80 f   MSVCRT:MSVCR120.dll
 0001:00041b86       ___CxxFrameHandler3        00442b86 f   MSVCRT:MSVCR120.dll
 0001:00041b90       __ftol2_sse                00442b90 f   MSVCRT:ftol2.obj
 0001:00041b99       __ftol2_pentium4           00442b99 f   MSVCRT:ftol2.obj
 0001:00041bac       __ftol2_sse_excpt          00442bac f   MSVCRT:ftol2.obj
 0001:00041bc6       __ftol2                    00442bc6 f   MSVCRT:ftol2.obj
 0001:00041c3b       ??0type_info@@AAE@ABV0@@Z  00442c3b f   MSVCRT:ti_inst.obj
 0001:00041c46       ??4type_info@@AAEAAV0@ABV0@@Z 00442c46 f   MSVCRT:ti_inst.obj
 0001:00041c4b       ??_Etype_info@@UAEPAXI@Z   00442c4b f i MSVCRT:ti_inst.obj
 0001:00041ca0       ___RTDynamicCast           00442ca0 f   MSVCRT:MSVCR120.dll
 0001:00041ca6       _sprintf_s                 00442ca6 f   MSVCRT:MSVCR120.dll
 0001:00041cac       _memset                    00442cac f   MSVCRT:MSVCR120.dll
 0001:00041cb2       _atan2                     00442cb2 f   MSVCRT:MSVCR120.dll
 0001:00041cb8       _fabs                      00442cb8 f   MSVCRT:MSVCR120.dll
 0001:00041cbe       _sqrt                      00442cbe f   MSVCRT:MSVCR120.dll
 0001:00041cc4       _sprintf                   00442cc4 f   MSVCRT:MSVCR120.dll
 0001:00041cca       _srand                     00442cca f   MSVCRT:MSVCR120.dll
 0001:00041cd0       __time64                   00442cd0 f   MSVCRT:MSVCR120.dll
 0001:00041cd6       ___iob_func                00442cd6 f   MSVCRT:MSVCR120.dll
 0001:00041cdc       _fprintf                   00442cdc f   MSVCRT:MSVCR120.dll
 0001:00041ce2       _printf                    00442ce2 f   MSVCRT:MSVCR120.dll
 0001:00041ce8       _atan                      00442ce8 f   MSVCRT:MSVCR120.dll
 0001:00041cee       ??_V@YAXPAX@Z              00442cee f   MSVCRT:MSVCR120.dll
 0001:00041cf4       _strcpy                    00442cf4 f   MSVCRT:MSVCR120.dll
 0001:00041cfa       _strcmp                    00442cfa f   MSVCRT:MSVCR120.dll
 0001:00041d00       _fclose                    00442d00 f   MSVCRT:MSVCR120.dll
 0001:00041d06       _fflush                    00442d06 f   MSVCRT:MSVCR120.dll
 0001:00041d0c       _fgetc                     00442d0c f   MSVCRT:MSVCR120.dll
 0001:00041d12       _fgetpos                   00442d12 f   MSVCRT:MSVCR120.dll
 0001:00041d18       _fputc                     00442d18 f   MSVCRT:MSVCR120.dll
 0001:00041d1e       _fsetpos                   00442d1e f   MSVCRT:MSVCR120.dll
 0001:00041d24       __fseeki64                 00442d24 f   MSVCRT:MSVCR120.dll
 0001:00041d2a       _fwrite                    00442d2a f   MSVCRT:MSVCR120.dll
 0001:00041d30       _setvbuf                   00442d30 f   MSVCRT:MSVCR120.dll
 0001:00041d36       _ungetc                    00442d36 f   MSVCRT:MSVCR120.dll
 0001:00041d3c       __lock_file                00442d3c f   MSVCRT:MSVCR120.dll
 0001:00041d42       __unlock_file              00442d42 f   MSVCRT:MSVCR120.dll
 0001:00041d48       _memchr                    00442d48 f   MSVCRT:MSVCR120.dll
 0001:00041d4e       _memcmp                    00442d4e f   MSVCRT:MSVCR120.dll
 0001:00041d54       _memcpy_s                  00442d54 f   MSVCRT:MSVCR120.dll
 0001:00041d5a       _abs                       00442d5a f   MSVCRT:MSVCR120.dll
 0001:00041d60       _atoi                      00442d60 f   MSVCRT:MSVCR120.dll
 0001:00041d66       _rand                      00442d66 f   MSVCRT:MSVCR120.dll
 0001:00041d6c       ??0exception@std@@QAE@ABQBD@Z 00442d6c f   MSVCRT:MSVCR120.dll
 0001:00041d72       ??0exception@std@@QAE@ABV01@@Z 00442d72 f   MSVCRT:MSVCR120.dll
 0001:00041d78       ??1exception@std@@UAE@XZ   00442d78 f   MSVCRT:MSVCR120.dll
 0001:00041d7e       ??0bad_cast@std@@QAE@PBD@Z 00442d7e f   MSVCRT:MSVCR120.dll
 0001:00041d84       ??0bad_cast@std@@QAE@ABV01@@Z 00442d84 f   MSVCRT:MSVCR120.dll
 0001:00041d8a       ??1bad_cast@std@@UAE@XZ    00442d8a f   MSVCRT:MSVCR120.dll
 0001:00041d90       ?what@exception@std@@UBEPBDXZ 00442d90 f   MSVCRT:MSVCR120.dll
 0001:00041d96       __wassert                  00442d96 f   MSVCRT:MSVCR120.dll
 0001:00041d9c       ?__CxxUnhandledExceptionFilter@@YGJPAU_EXCEPTION_POINTERS@@@Z 00442d9c f   MSVCRT:unhandld.obj
 0001:00041ddd       ___CxxSetUnhandledExceptionFilter 00442ddd f   MSVCRT:unhandld.obj
 0001:00041dec       __XcptFilter               00442dec f   MSVCRT:MSVCR120.dll
 0001:00041df2       __amsg_exit                00442df2 f   MSVCRT:MSVCR120.dll
 0001:00041df8       __setargv                  00442df8 f   MSVCRT:dllargv.obj
 0001:00041dfc       ___getmainargs             00442dfc f   MSVCRT:MSVCR120.dll
 0001:00041e02       ___set_app_type            00442e02 f   MSVCRT:MSVCR120.dll
 0001:00041e10       __FindPESection            00442e10 f   MSVCRT:pesect.obj
 0001:00041e60       __IsNonwritableInCurrentImage 00442e60 f   MSVCRT:pesect.obj
 0001:00041f20       __ValidateImageBase        00442f20 f   MSVCRT:pesect.obj
 0001:00041f52       _exit                      00442f52 f   MSVCRT:MSVCR120.dll
 0001:00041f58       __exit                     00442f58 f   MSVCRT:MSVCR120.dll
 0001:00041f5e       __cexit                    00442f5e f   MSVCRT:MSVCR120.dll
 0001:00041f64       ___security_init_cookie    00442f64 f   MSVCRT:gs_support.obj
 0001:00042000       __matherr                  00443000 f   MSVCRT:merr.obj
 0001:00042003       __RTC_Initialize           00443003 f   MSVCRT:initsect.obj
 0001:00042023       __RTC_Terminate            00443023 f   MSVCRT:initsect.obj
 0001:00042044       __configthreadlocale       00443044 f   MSVCRT:MSVCR120.dll
 0001:0004204a       __invoke_watson_if_error   0044304a f i MSVCRT:fp8.obj
 0001:0004206a       __setdefaultprecision      0044306a f   MSVCRT:fp8.obj
 0001:00042092       ___setusermatherr          00443092 f   MSVCRT:MSVCR120.dll
 0001:00042098       __initterm_e               00443098 f   MSVCRT:MSVCR120.dll
 0001:0004209e       __initterm                 0044309e f   MSVCRT:MSVCR120.dll
 0001:000420b0       __SEH_prolog4              004430b0 f   MSVCRT:sehprolg4.obj
 0001:000420f5       __SEH_epilog4              004430f5 f   MSVCRT:sehprolg4.obj
 0001:00042109       __except_handler4          00443109 f   MSVCRT:chandler4gs.obj
 0001:0004212c       __lock                     0044312c f   MSVCRT:MSVCR120.dll
 0001:00042132       __unlock                   00443132 f   MSVCRT:MSVCR120.dll
 0001:00042138       __calloc_crt               00443138 f   MSVCRT:MSVCR120.dll
 0001:0004213e       ___dllonexit               0044313e f   MSVCRT:MSVCR120.dll
 0001:00042144       ___raise_securityfailure   00443144 f   MSVCRT:gs_report.obj
 0001:00042181       ___report_gsfailure        00443181 f   MSVCRT:gs_report.obj
 0001:0004227c       ___report_rangecheckfailure 0044327c f   MSVCRT:gs_report.obj
 0001:00042288       ___report_securityfailure  00443288 f   MSVCRT:gs_report.obj
 0001:00042358       ___report_securityfailureEx 00443358 f   MSVCRT:gs_report.obj
 0001:0004246e       ___isa_available_init      0044346e f   MSVCRT:cpu_disp.obj
 0001:000425e7       ??_M@YGXPAXIHP6EX0@Z@Z     004435e7 f   MSVCRT:ehvecdtr.obj
 0001:0004266f       ?__ArrayUnwind@@YGXPAXIHP6EX0@Z@Z 0044366f f   MSVCRT:ehvecdtr.obj
 0001:000426ce       ??1type_info@@UAE@XZ       004436ce f   MSVCRT:MSVCR120.dll
 0001:000426d4       ?terminate@@YAXXZ          004436d4 f   MSVCRT:MSVCR120.dll
 0001:000426da       ___crtSetUnhandledExceptionFilter 004436da f   MSVCRT:MSVCR120.dll
 0001:000426e0       __invoke_watson            004436e0 f   MSVCRT:MSVCR120.dll
 0001:000426e6       __controlfp_s              004436e6 f   MSVCRT:MSVCR120.dll
 0001:000426ec       __except_handler4_common   004436ec f   MSVCRT:MSVCR120.dll
 0001:000426f2       __crt_debugger_hook        004436f2 f   MSVCRT:MSVCR120.dll
 0001:000426f8       ___crtUnhandledException   004436f8 f   MSVCRT:MSVCR120.dll
 0001:000426fe       ___crtTerminateProcess     004436fe f   MSVCRT:MSVCR120.dll
 0001:00042704       _EncodePointer@4           00443704 f   kernel32:KERNEL32.dll
 0001:0004270a       _DecodePointer@4           0044370a f   kernel32:KERNEL32.dll
 0001:00042710       _QueryPerformanceCounter@4 00443710 f   kernel32:KERNEL32.dll
 0001:00042716       _GetCurrentProcessId@0     00443716 f   kernel32:KERNEL32.dll
 0001:0004271c       _GetCurrentThreadId@0      0044371c f   kernel32:KERNEL32.dll
 0001:00042722       _GetSystemTimeAsFileTime@4 00443722 f   kernel32:KERNEL32.dll
 0001:00042728       _IsDebuggerPresent@0       00443728 f   kernel32:KERNEL32.dll
 0001:0004272e       _IsProcessorFeaturePresent@4 0044372e f   kernel32:KERNEL32.dll
 0001:00042734       _GetCommandLineW@0         00443734 f   kernel32:KERNEL32.dll
 0001:0004273a       _SDL_SetMainReady          0044373a f   SDL2:SDL2.dll
 0001:00042740       _SDL_free                  00443740 f   SDL2:SDL2.dll
 0001:00042746       _SDL_malloc                00443746 f   SDL2:SDL2.dll
 0001:0004274c       _SDL_iconv_string          0044374c f   SDL2:SDL2.dll
 0001:00042752       _SDL_wcslen                00443752 f   SDL2:SDL2.dll
 0001:00042758       _SDL_isspace               00443758 f   SDL2:SDL2.dll
 0002:00000000       ___xc_a                    0044b000     MSVCRT:cinitexe.obj
 0002:0000066c       ___xc_z                    0044b66c     MSVCRT:cinitexe.obj
 0002:00000770       ___xi_a                    0044b770     MSVCRT:cinitexe.obj
 0002:00000b88       ___xi_z                    0044bb88     MSVCRT:cinitexe.obj
 0002:00000cc8       ?digits@?$numeric_limits@_J@std@@2HB 0044bcc8     BulletObject.obj
 0002:00000ccc       ?digits10@?$numeric_limits@_J@std@@2HB 0044bccc     BulletObject.obj
 0002:00000cd0       ?is_signed@?$numeric_limits@_K@std@@2_NB 0044bcd0     BulletObject.obj
 0002:00000cd4       ?digits@?$numeric_limits@_K@std@@2HB 0044bcd4     BulletObject.obj
 0002:00000cd8       ?digits10@?$numeric_limits@_K@std@@2HB 0044bcd8     BulletObject.obj
 0002:00000cdc       ?digits@?$numeric_limits@M@std@@2HB 0044bcdc     BulletObject.obj
 0002:00000ce0       ?digits10@?$numeric_limits@M@std@@2HB 0044bce0     BulletObject.obj
 0002:00000ce4       ?max_digits10@?$numeric_limits@M@std@@2HB 0044bce4     BulletObject.obj
 0002:00000ce8       ?max_exponent@?$numeric_limits@M@std@@2HB 0044bce8     BulletObject.obj
 0002:00000cec       ?max_exponent10@?$numeric_limits@M@std@@2HB 0044bcec     BulletObject.obj
 0002:00000cf0       ?min_exponent@?$numeric_limits@M@std@@2HB 0044bcf0     BulletObject.obj
 0002:00000cf4       ?min_exponent10@?$numeric_limits@M@std@@2HB 0044bcf4     BulletObject.obj
 0002:00000cf8       ?digits@?$numeric_limits@N@std@@2HB 0044bcf8     BulletObject.obj
 0002:00000cfc       ?digits10@?$numeric_limits@N@std@@2HB 0044bcfc     BulletObject.obj
 0002:00000d00       ?max_digits10@?$numeric_limits@N@std@@2HB 0044bd00     BulletObject.obj
 0002:00000d04       ?max_exponent@?$numeric_limits@N@std@@2HB 0044bd04     BulletObject.obj
 0002:00000d08       ?max_exponent10@?$numeric_limits@N@std@@2HB 0044bd08     BulletObject.obj
 0002:00000d0c       ?min_exponent@?$numeric_limits@N@std@@2HB 0044bd0c     BulletObject.obj
 0002:00000d10       ?min_exponent10@?$numeric_limits@N@std@@2HB 0044bd10     BulletObject.obj
 0002:00000d14       ?_EEM_DS@?$deque@PAUCoordinate@@V?$allocator@PAUCoordinate@@@std@@@std@@2HB 0044bd14     BulletObject.obj
 0002:00000d18       ?digits@?$numeric_limits@O@std@@2HB 0044bd18     BulletObject.obj
 0002:00000d1c       ?digits10@?$numeric_limits@O@std@@2HB 0044bd1c     BulletObject.obj
 0002:00000d20       ?max_digits10@?$numeric_limits@O@std@@2HB 0044bd20     BulletObject.obj
 0002:00000d24       ?max_exponent@?$numeric_limits@O@std@@2HB 0044bd24     BulletObject.obj
 0002:00000d28       ?max_exponent10@?$numeric_limits@O@std@@2HB 0044bd28     BulletObject.obj
 0002:00000d2c       ?_EEM_DS@?$deque@NV?$allocator@N@std@@@std@@2HB 0044bd2c     BulletObject.obj
 0002:00000d30       ?min_exponent@?$numeric_limits@O@std@@2HB 0044bd30     BulletObject.obj
 0002:00000d34       ?min_exponent10@?$numeric_limits@O@std@@2HB 0044bd34     BulletObject.obj
 0002:00000d38       ?value@?$integral_constant@I$07@std@@2IB 0044bd38     BulletObject.obj
 0002:00000d3c       ?has_denorm@_Num_base@std@@2W4float_denorm_style@2@B 0044bd3c     BulletObject.obj
 0002:00000d40       ?has_denorm_loss@_Num_base@std@@2_NB 0044bd40     BulletObject.obj
 0002:00000d44       ?value@?$integral_constant@I$03@std@@2IB 0044bd44     BulletObject.obj
 0002:00000d48       ?has_infinity@_Num_base@std@@2_NB 0044bd48     BulletObject.obj
 0002:00000d49       ?has_quiet_NaN@_Num_base@std@@2_NB 0044bd49     BulletObject.obj
 0002:00000d4a       ?has_signaling_NaN@_Num_base@std@@2_NB 0044bd4a     BulletObject.obj
 0002:00000d4b       ?is_bounded@_Num_base@std@@2_NB 0044bd4b     BulletObject.obj
 0002:00000d4c       ?is_exact@_Num_base@std@@2_NB 0044bd4c     BulletObject.obj
 0002:00000d4d       ?is_iec559@_Num_base@std@@2_NB 0044bd4d     BulletObject.obj
 0002:00000d4e       ?is_integer@_Num_base@std@@2_NB 0044bd4e     BulletObject.obj
 0002:00000d4f       ?is_modulo@_Num_base@std@@2_NB 0044bd4f     BulletObject.obj
 0002:00000d50       ?is_signed@_Num_base@std@@2_NB 0044bd50     BulletObject.obj
 0002:00000d51       ?is_specialized@_Num_base@std@@2_NB 0044bd51     BulletObject.obj
 0002:00000d52       ?tinyness_before@_Num_base@std@@2_NB 0044bd52     BulletObject.obj
 0002:00000d53       ?traps@_Num_base@std@@2_NB 0044bd53     BulletObject.obj
 0002:00000d54       ?round_style@_Num_base@std@@2W4float_round_style@2@B 0044bd54     BulletObject.obj
 0002:00000d58       ?digits@_Num_base@std@@2HB 0044bd58     BulletObject.obj
 0002:00000d5c       ?digits10@_Num_base@std@@2HB 0044bd5c     BulletObject.obj
 0002:00000d60       ?max_digits10@_Num_base@std@@2HB 0044bd60     BulletObject.obj
 0002:00000d64       ?max_exponent@_Num_base@std@@2HB 0044bd64     BulletObject.obj
 0002:00000d68       ?max_exponent10@_Num_base@std@@2HB 0044bd68     BulletObject.obj
 0002:00000d6c       ?min_exponent@_Num_base@std@@2HB 0044bd6c     BulletObject.obj
 0002:00000d70       ?min_exponent10@_Num_base@std@@2HB 0044bd70     BulletObject.obj
 0002:00000d74       ?radix@_Num_base@std@@2HB  0044bd74     BulletObject.obj
 0002:00000d78       ?value@?$integral_constant@I$01@std@@2IB 0044bd78     BulletObject.obj
 0002:00000d7c       ?is_bounded@_Num_int_base@std@@2_NB 0044bd7c     BulletObject.obj
 0002:00000d7d       ?is_exact@_Num_int_base@std@@2_NB 0044bd7d     BulletObject.obj
 0002:00000d7e       ?is_integer@_Num_int_base@std@@2_NB 0044bd7e     BulletObject.obj
 0002:00000d7f       ?is_modulo@_Num_int_base@std@@2_NB 0044bd7f     BulletObject.obj
 0002:00000d80       ?is_specialized@_Num_int_base@std@@2_NB 0044bd80     BulletObject.obj
 0002:00000d84       ?radix@_Num_int_base@std@@2HB 0044bd84     BulletObject.obj
 0002:00000d88       ?has_denorm@_Num_float_base@std@@2W4float_denorm_style@2@B 0044bd88     BulletObject.obj
 0002:00000d8c       ?has_denorm_loss@_Num_float_base@std@@2_NB 0044bd8c     BulletObject.obj
 0002:00000d90       ?value@?$integral_constant@I$00@std@@2IB 0044bd90     BulletObject.obj
 0002:00000d94       ?has_infinity@_Num_float_base@std@@2_NB 0044bd94     BulletObject.obj
 0002:00000d95       ?has_quiet_NaN@_Num_float_base@std@@2_NB 0044bd95     BulletObject.obj
 0002:00000d96       ?has_signaling_NaN@_Num_float_base@std@@2_NB 0044bd96     BulletObject.obj
 0002:00000d97       ?is_bounded@_Num_float_base@std@@2_NB 0044bd97     BulletObject.obj
 0002:00000d98       ?is_exact@_Num_float_base@std@@2_NB 0044bd98     BulletObject.obj
 0002:00000d99       ?is_iec559@_Num_float_base@std@@2_NB 0044bd99     BulletObject.obj
 0002:00000d9a       ?is_integer@_Num_float_base@std@@2_NB 0044bd9a     BulletObject.obj
 0002:00000d9b       ?is_modulo@_Num_float_base@std@@2_NB 0044bd9b     BulletObject.obj
 0002:00000d9c       ?value@?$_Maximum@$S@std@@2IB 0044bd9c     BulletObject.obj
 0002:00000da0       ?is_signed@_Num_float_base@std@@2_NB 0044bda0     BulletObject.obj
 0002:00000da1       ?is_specialized@_Num_float_base@std@@2_NB 0044bda1     BulletObject.obj
 0002:00000da2       ?tinyness_before@_Num_float_base@std@@2_NB 0044bda2     BulletObject.obj
 0002:00000da3       ?traps@_Num_float_base@std@@2_NB 0044bda3     BulletObject.obj
 0002:00000da4       ?round_style@_Num_float_base@std@@2W4float_round_style@2@B 0044bda4     BulletObject.obj
 0002:00000da8       ?radix@_Num_float_base@std@@2HB 0044bda8     BulletObject.obj
 0002:00000dac       ?value@?$integral_constant@I$0A@@std@@2IB 0044bdac     BulletObject.obj
 0002:00000db0       ?is_signed@?$numeric_limits@D@std@@2_NB 0044bdb0     BulletObject.obj
 0002:00000db4       ?digits@?$numeric_limits@D@std@@2HB 0044bdb4     BulletObject.obj
 0002:00000db8       ?digits10@?$numeric_limits@D@std@@2HB 0044bdb8     BulletObject.obj
 0002:00000dbc       ?is_signed@?$numeric_limits@_W@std@@2_NB 0044bdbc     BulletObject.obj
 0002:00000dc0       ?digits@?$numeric_limits@_W@std@@2HB 0044bdc0     BulletObject.obj
 0002:00000dc4       ?digits10@?$numeric_limits@_W@std@@2HB 0044bdc4     BulletObject.obj
 0002:00000dc8       ?is_modulo@?$numeric_limits@_N@std@@2_NB 0044bdc8     BulletObject.obj
 0002:00000dc9       ?is_signed@?$numeric_limits@_N@std@@2_NB 0044bdc9     BulletObject.obj
 0002:00000dcc       ?digits@?$numeric_limits@_N@std@@2HB 0044bdcc     BulletObject.obj
 0002:00000dd0       ?digits10@?$numeric_limits@_N@std@@2HB 0044bdd0     BulletObject.obj
 0002:00000dd4       ?collate@?$_Locbase@H@std@@2HB 0044bdd4     BulletObject.obj
 0002:00000dd8       ?ctype@?$_Locbase@H@std@@2HB 0044bdd8     BulletObject.obj
 0002:00000ddc       ?monetary@?$_Locbase@H@std@@2HB 0044bddc     BulletObject.obj
 0002:00000de0       ?numeric@?$_Locbase@H@std@@2HB 0044bde0     BulletObject.obj
 0002:00000de4       ?time@?$_Locbase@H@std@@2HB 0044bde4     BulletObject.obj
 0002:00000de8       ?is_signed@?$numeric_limits@C@std@@2_NB 0044bde8     BulletObject.obj
 0002:00000dec       ?messages@?$_Locbase@H@std@@2HB 0044bdec     BulletObject.obj
 0002:00000df0       ?all@?$_Locbase@H@std@@2HB 0044bdf0     BulletObject.obj
 0002:00000df4       ?digits@?$numeric_limits@C@std@@2HB 0044bdf4     BulletObject.obj
 0002:00000df8       ?none@?$_Locbase@H@std@@2HB 0044bdf8     BulletObject.obj
 0002:00000dfc       ?digits10@?$numeric_limits@C@std@@2HB 0044bdfc     BulletObject.obj
 0002:00000e00       ?skipws@?$_Iosb@H@std@@2W4_Fmtflags@12@B 0044be00     BulletObject.obj
 0002:00000e04       ?unitbuf@?$_Iosb@H@std@@2W4_Fmtflags@12@B 0044be04     BulletObject.obj
 0002:00000e08       ?uppercase@?$_Iosb@H@std@@2W4_Fmtflags@12@B 0044be08     BulletObject.obj
 0002:00000e0c       ?showbase@?$_Iosb@H@std@@2W4_Fmtflags@12@B 0044be0c     BulletObject.obj
 0002:00000e10       ?showpoint@?$_Iosb@H@std@@2W4_Fmtflags@12@B 0044be10     BulletObject.obj
 0002:00000e14       ?is_signed@?$numeric_limits@E@std@@2_NB 0044be14     BulletObject.obj
 0002:00000e18       ?showpos@?$_Iosb@H@std@@2W4_Fmtflags@12@B 0044be18     BulletObject.obj
 0002:00000e1c       ?digits@?$numeric_limits@E@std@@2HB 0044be1c     BulletObject.obj
 0002:00000e20       ?left@?$_Iosb@H@std@@2W4_Fmtflags@12@B 0044be20     BulletObject.obj
 0002:00000e24       ?digits10@?$numeric_limits@E@std@@2HB 0044be24     BulletObject.obj
 0002:00000e28       ?right@?$_Iosb@H@std@@2W4_Fmtflags@12@B 0044be28     BulletObject.obj
 0002:00000e2c       ?internal@?$_Iosb@H@std@@2W4_Fmtflags@12@B 0044be2c     BulletObject.obj
 0002:00000e30       ?dec@?$_Iosb@H@std@@2W4_Fmtflags@12@B 0044be30     BulletObject.obj
 0002:00000e34       ?oct@?$_Iosb@H@std@@2W4_Fmtflags@12@B 0044be34     BulletObject.obj
 0002:00000e38       ?hex@?$_Iosb@H@std@@2W4_Fmtflags@12@B 0044be38     BulletObject.obj
 0002:00000e3c       ?scientific@?$_Iosb@H@std@@2W4_Fmtflags@12@B 0044be3c     BulletObject.obj
 0002:00000e40       ?fixed@?$_Iosb@H@std@@2W4_Fmtflags@12@B 0044be40     BulletObject.obj
 0002:00000e44       ?hexfloat@?$_Iosb@H@std@@2W4_Fmtflags@12@B 0044be44     BulletObject.obj
 0002:00000e48       ?boolalpha@?$_Iosb@H@std@@2W4_Fmtflags@12@B 0044be48     BulletObject.obj
 0002:00000e4c       ?_Stdio@?$_Iosb@H@std@@2W4_Fmtflags@12@B 0044be4c     BulletObject.obj
 0002:00000e50       ?is_signed@?$numeric_limits@F@std@@2_NB 0044be50     BulletObject.obj
 0002:00000e54       ?adjustfield@?$_Iosb@H@std@@2W4_Fmtflags@12@B 0044be54     BulletObject.obj
 0002:00000e58       ?basefield@?$_Iosb@H@std@@2W4_Fmtflags@12@B 0044be58     BulletObject.obj
 0002:00000e5c       ?digits@?$numeric_limits@F@std@@2HB 0044be5c     BulletObject.obj
 0002:00000e60       ?floatfield@?$_Iosb@H@std@@2W4_Fmtflags@12@B 0044be60     BulletObject.obj
 0002:00000e64       ?digits10@?$numeric_limits@F@std@@2HB 0044be64     BulletObject.obj
 0002:00000e68       ?goodbit@?$_Iosb@H@std@@2W4_Iostate@12@B 0044be68     BulletObject.obj
 0002:00000e6c       ?eofbit@?$_Iosb@H@std@@2W4_Iostate@12@B 0044be6c     BulletObject.obj
 0002:00000e70       ?failbit@?$_Iosb@H@std@@2W4_Iostate@12@B 0044be70     BulletObject.obj
 0002:00000e74       ?badbit@?$_Iosb@H@std@@2W4_Iostate@12@B 0044be74     BulletObject.obj
 0002:00000e78       ?_Hardfail@?$_Iosb@H@std@@2W4_Iostate@12@B 0044be78     BulletObject.obj
 0002:00000e7c       ?in@?$_Iosb@H@std@@2W4_Openmode@12@B 0044be7c     BulletObject.obj
 0002:00000e80       ?out@?$_Iosb@H@std@@2W4_Openmode@12@B 0044be80     BulletObject.obj
 0002:00000e84       ?ate@?$_Iosb@H@std@@2W4_Openmode@12@B 0044be84     BulletObject.obj
 0002:00000e88       ?app@?$_Iosb@H@std@@2W4_Openmode@12@B 0044be88     BulletObject.obj
 0002:00000e8c       ?is_signed@?$numeric_limits@G@std@@2_NB 0044be8c     BulletObject.obj
 0002:00000e90       ?trunc@?$_Iosb@H@std@@2W4_Openmode@12@B 0044be90     BulletObject.obj
 0002:00000e94       ?digits@?$numeric_limits@G@std@@2HB 0044be94     BulletObject.obj
 0002:00000e98       ?_Nocreate@?$_Iosb@H@std@@2W4_Openmode@12@B 0044be98     BulletObject.obj
 0002:00000e9c       ?digits10@?$numeric_limits@G@std@@2HB 0044be9c     BulletObject.obj
 0002:00000ea0       ?_Noreplace@?$_Iosb@H@std@@2W4_Openmode@12@B 0044bea0     BulletObject.obj
 0002:00000ea4       ?binary@?$_Iosb@H@std@@2W4_Openmode@12@B 0044bea4     BulletObject.obj
 0002:00000ea8       ?beg@?$_Iosb@H@std@@2W4_Seekdir@12@B 0044bea8     BulletObject.obj
 0002:00000eac       ?cur@?$_Iosb@H@std@@2W4_Seekdir@12@B 0044beac     BulletObject.obj
 0002:00000eb0       ?end@?$_Iosb@H@std@@2W4_Seekdir@12@B 0044beb0     BulletObject.obj
 0002:00000eb4       ?is_signed@?$numeric_limits@H@std@@2_NB 0044beb4     BulletObject.obj
 0002:00000eb8       ?digits@?$numeric_limits@H@std@@2HB 0044beb8     BulletObject.obj
 0002:00000ebc       ?digits10@?$numeric_limits@H@std@@2HB 0044bebc     BulletObject.obj
 0002:00000ec0       ?is_signed@?$numeric_limits@I@std@@2_NB 0044bec0     BulletObject.obj
 0002:00000ec4       ?digits@?$numeric_limits@I@std@@2HB 0044bec4     BulletObject.obj
 0002:00000ec8       ?digits10@?$numeric_limits@I@std@@2HB 0044bec8     BulletObject.obj
 0002:00000ecc       ?is_signed@?$numeric_limits@J@std@@2_NB 0044becc     BulletObject.obj
 0002:00000ed0       ?digits@?$numeric_limits@J@std@@2HB 0044bed0     BulletObject.obj
 0002:00000ed4       ?digits10@?$numeric_limits@J@std@@2HB 0044bed4     BulletObject.obj
 0002:00000ed8       ?value@?$integral_constant@_N$0A@@std@@2_NB 0044bed8     BulletObject.obj
 0002:00000ed9       ?value@?$integral_constant@_N$00@std@@2_NB 0044bed9     BulletObject.obj
 0002:00000eda       ?is_signed@?$numeric_limits@K@std@@2_NB 0044beda     BulletObject.obj
 0002:00000edc       ?digits@?$numeric_limits@K@std@@2HB 0044bedc     BulletObject.obj
 0002:00000ee0       ?digits10@?$numeric_limits@K@std@@2HB 0044bee0     BulletObject.obj
 0002:00000ee4       ?is_signed@?$numeric_limits@_J@std@@2_NB 0044bee4     BulletObject.obj
 0002:00000eec       ??_7BulletObject@@6B@      0044beec     BulletObject.obj
 0002:00000f08       ??_7error_category@std@@6B@ 0044bf08     BulletObject.obj
 0002:00000f2c       ??_7_Generic_error_category@std@@6B@ 0044bf2c     BulletObject.obj
 0002:00000f4c       ??_C@_07DCLBNMLN@generic?$AA@ 0044bf4c     BulletObject.obj
 0002:00000f58       ??_C@_0O@BFJCFAAK@unknown?5error?$AA@ 0044bf58     BulletObject.obj
 0002:00000f6c       ??_7_Iostream_error_category@std@@6B@ 0044bf6c     BulletObject.obj
 0002:00000f8c       ??_C@_08LLGCOLLL@iostream?$AA@ 0044bf8c     BulletObject.obj
 0002:00000f98       ??_C@_0BG@PADBLCHM@iostream?5stream?5error?$AA@ 0044bf98     BulletObject.obj
 0002:00000fb8       ??_7_System_error_category@std@@6B@ 0044bfb8     BulletObject.obj
 0002:00000fd8       ??_C@_06FHFOAHML@system?$AA@ 0044bfd8     BulletObject.obj
 0002:00000fe0       ??_C@_0BA@JFNIOLAK@string?5too?5long?$AA@ 0044bfe0     BulletObject.obj
 0002:00000ff4       ??_C@_0BI@CFPLBAOH@invalid?5string?5position?$AA@ 0044bff4     BulletObject.obj
 0002:00001010       __real@401f6a7a2955385e    0044c010     BulletObject.obj
 0002:00001020       __real@402c000000000000    0044c020     BulletObject.obj
 0002:00001030       ??_7Button@@6B@            0044c030     Button.obj
 0002:00001048       ??_C@_0BE@PLNMCNGK@Millimetre?9Bold?4otf?$AA@ 0044c048     Button.obj
 0002:00001060       ?_EEM_DS@?$deque@PAVCoordinate@@V?$allocator@PAVCoordinate@@@std@@@std@@2HB 0044c060     CoinObject.obj
 0002:00001068       ??_7CoinObject@@6B@        0044c068     CoinObject.obj
 0002:00001090       ??_7CoinZombieObject@@6B@  0044c090     CoinZombieObject.obj
 0002:000010bc       ??_C@_0BD@OLBABOEK@vector?$DMT?$DO?5too?5long?$AA@ 0044c0bc     CoinZombieObject.obj
 0002:000010d8       __real@3f847ae147ae147b    0044c0d8     CoinZombieObject.obj
 0002:000010e8       ??_7CollectableObject@@6B@ 0044c0e8     CollectableObject.obj
 0002:00001110       ??_7DiedState@@6B@         0044c110     DiedState.obj
 0002:0000113c       ??_7?$basic_stringbuf@DU?$char_traits@D@std@@V?$allocator@D@2@@std@@6B@ 0044c13c     DiedState.obj
 0002:00001188       ??_7?$basic_ostringstream@DU?$char_traits@D@std@@V?$allocator@D@2@@std@@6B@ 0044c188     DiedState.obj
 0002:00001190       ??_8?$basic_ostringstream@DU?$char_traits@D@std@@V?$allocator@D@2@@std@@7B@ 0044c190     DiedState.obj
 0002:0000119c       ??_C@_0CE@FLIBCPBN@You?5Died?$CB?5Press?5Space?5To?5Respawn@ 0044c19c     DiedState.obj
 0002:000011cc       ??_7GameoverState@@6B@     0044c1cc     GameoverState.obj
 0002:000011f4       ??_C@_02DPKJAMEF@?$CFd?$AA@ 0044c1f4     GameoverState.obj
 0002:000011f8       ??_C@_09HJCFOPMO@Game?5Over?$AA@ 0044c1f8     GameoverState.obj
 0002:00001204       ??_C@_0BJ@EFFMFPID@?5Rounds?5With?5A?5Score?5Of?5?$AA@ 0044c204     GameoverState.obj
 0002:00001224       ??_C@_0P@OFKJKIAO@Your?5Survived?5?$AA@ 0044c224     GameoverState.obj
 0002:00001238       ??_C@_0CE@GKKPJLLF@?$CIPress?5space?5to?5return?5to?5the?5me@ 0044c238     GameoverState.obj
 0002:00001268       ??_7HealthBarObject@@6B@   0044c268     HealthBarObject.obj
 0002:00001280       ??_C@_01FGNFDNOH@?$CF?$AA@ 0044c280     HealthBarObject.obj
 0002:00001288       __real@4059000000000000    0044c288     HealthBarObject.obj
 0002:00001298       ??_7HeartObject@@6B@       0044c298     HeartObject.obj
 0002:000012c0       ??_7HeartZombieObject@@6B@ 0044c2c0     HeartZombieObject.obj
 0002:000012ec       ?npos@?$basic_string@DU?$char_traits@D@std@@V?$allocator@D@2@@std@@2IB 0044c2ec     HelperFunctions.obj
 0002:000012f0       __real@3ff0000000000000    0044c2f0     HelperFunctions.obj
 0002:00001300       __real@4025fdbbe9bba775    0044c300     HelperFunctions.obj
 0002:00001310       ??_7HelpState@@6B@         0044c310     HelpState.obj
 0002:00001338       ??_C@_0N@DCKGNPEG@Instructions?$AA@ 0044c338     HelpState.obj
 0002:00001348       ??_C@_08OBIAEFPP@Outbreak?$AA@ 0044c348     mainfunction.obj
 0002:00001358       ??_7BaseEngine@@6B@        0044c358     BaseEngine.obj
 0002:000013c4       ??_C@_0BI@FBLGJKMC@Unable?5to?5init?5SDL?3?5?$CFs?6?$AA@ 0044c3c4     BaseEngine.obj
 0002:000013e0       ??_C@_0EG@PFCKNAL@Draw?5shortened?5line?5?$CFd?0?$CFd?5to?5?$CFd?0@ 0044c3e0     BaseEngine.obj
 0002:00001434       ??_C@_0BM@NMJKDPPO@invalid?5vector?$DMT?$DO?5subscript?$AA@ 0044c434     BaseEngine.obj
 0002:00001458       __real@0000000000000000    0044c458     BaseEngine.obj
 0002:00001468       __real@3fe0000000000000    0044c468     BaseEngine.obj
 0002:00001478       __real@3fe0c152382d7365    0044c478     BaseEngine.obj
 0002:00001488       __real@3ff8000000000000    0044c488     BaseEngine.obj
 0002:00001498       __real@3ff921fb54442d18    0044c498     BaseEngine.obj
 0002:000014a8       __real@4000000000000000    0044c4a8     BaseEngine.obj
 0002:000014b8       __real@4008000000000000    0044c4b8     BaseEngine.obj
 0002:000014c8       __real@400921fb54442d18    0044c4c8     BaseEngine.obj
 0002:000014d8       __real@400f6a7a2955385e    0044c4d8     BaseEngine.obj
 0002:000014e8       __real@4010000000000000    0044c4e8     BaseEngine.obj
 0002:000014f8       __real@401921fb54442d18    0044c4f8     BaseEngine.obj
 0002:00001508       ??_7DisplayableObject@@6B@ 0044c508     DisplayableObject.obj
 0002:00001520       ??_C@_0BI@GMOFELCF@Free?5font?3?5?$CFd?5point?5?$CFs?6?$AA@ 0044c520     FontManager.obj
 0002:0000153c       ??_C@_0BL@IIGPEFFA@Loading?5font?3?5?$CFd?5point?5?$CFs?6?$AA@ 0044c53c     FontManager.obj
 0002:0000155c       ??_C@_0BG@EJGFOME@Font?5loading?5failed?4?6?$AA@ 0044c55c     FontManager.obj
 0002:00001578       __real@3f50624dd2f1a9fc    0044c578     JPGImage.obj
 0002:00001588       __real@406fe00000000000    0044c588     JPGImage.obj
 0002:000015a0       __xmm@41f00000000000000000000000000000 0044c5a0     JPGImage.obj
 0002:000015b8       ??_7logic_error@std@@6B@   0044c5b8     Map.obj
 0002:000015c8       ??_7out_of_range@std@@6B@  0044c5c8     Map.obj
 0002:000015d8       ??_7?$basic_filebuf@DU?$char_traits@D@std@@@std@@6B@ 0044c5d8     Map.obj
 0002:00001624       ??_7?$basic_ifstream@DU?$char_traits@D@std@@@std@@6B@ 0044c624     Map.obj
 0002:0000162c       ??_8?$basic_ifstream@DU?$char_traits@D@std@@@std@@7B@ 0044c62c     Map.obj
 0002:00001638       ??_C@_0CE@FFEEGEKA@x?0y?5coordinate?5not?5within?5map?5ra@ 0044c638     Map.obj
 0002:00001664       ??_C@_08EPJLHIJG@bad?5cast?$AA@ 0044c664     Map.obj
 0002:00001670       ??_C@_0BB@MOGOBHAF@list?$DMT?$DO?5too?5long?$AA@ 0044c670     Map.obj
 0002:00001684       ??_C@_0BE@JONHPENG@map?1set?$DMT?$DO?5too?5long?$AA@ 0044c684     Map.obj
 0002:000016a0       __real@3ff6666666666666    0044c6a0     Map.obj
 0002:000016b0       ??_7MenuState@@6B@         0044c6b0     MenuState.obj
 0002:000016d8       ??_C@_04MHNGOMDK@Play?$AA@ 0044c6d8     MenuState.obj
 0002:000016e4       ??_7NormalZombieObject@@6B@ 0044c6e4     NormalZombieObject.obj
 0002:00001714       ??_7PauseState@@6B@        0044c714     PauseState.obj
 0002:0000173c       ??_C@_0N@PPDOFLJF@Game?5Paused?$CB?$AA@ 0044c73c     PauseState.obj
 0002:00001750       ??_7PlayerObject@@6B@      0044c750     PlayerObject.obj
 0002:00001768       ??_C@_0M@MBAKJNEH@Health?3?5?$CFd?6?$AA@ 0044c768     PlayerObject.obj
 0002:00001778       __real@3f60624dd2f1a9fc    0044c778     PlayerObject.obj
 0002:00001788       __real@3fb999999999999a    0044c788     PlayerObject.obj
 0002:00001798       __real@3fd999999999999a    0044c798     PlayerObject.obj
 0002:000017a8       __real@3ff999999999999a    0044c7a8     PlayerObject.obj
 0002:000017b8       __real@4049000000000000    0044c7b8     PlayerObject.obj
 0002:000017d0       __xmm@80000000000000008000000000000000 0044c7d0     PlayerObject.obj
 0002:000017e8       ??_7PlayState@@6B@         0044c7e8     PlayState.obj
 0002:0000180f       ??_C@_00CNPNBAHC@?$AA@     0044c80f     PlayState.obj
 0002:00001810       ??_C@_01FJMABOPO@x?$AA@    0044c810     PlayState.obj
 0002:00001814       ??_C@_07IFPBJJMP@Round?3?5?$AA@ 0044c814     PlayState.obj
 0002:00001820       ??_C@_0BC@KBDMBKEH@deque?$DMT?$DO?5too?5long?$AA@ 0044c820     PlayState.obj
 0002:00001838       __real@3f947ae147ae147b    0044c838     PlayState.obj
 0002:00001848       __real@3fa999999999999a    0044c848     PlayState.obj
 0002:00001858       __real@3fd3333333333333    0044c858     PlayState.obj
 0002:00001868       __real@3fee666666666666    0044c868     PlayState.obj
 0002:00001878       __real@3ff0cccccccccccd    0044c878     PlayState.obj
 0002:00001888       __real@3ff199999999999a    0044c888     PlayState.obj
 0002:00001898       __real@4024000000000000    0044c898     PlayState.obj
 0002:000018a8       __real@4039000000000000    0044c8a8     PlayState.obj
 0002:000018b8       __real@40c3880000000000    0044c8b8     PlayState.obj
 0002:000018c8       ??_7Psyja2Engine@@6B@      0044c8c8     Psyja2Engine.obj
 0002:00001934       ??_C@_04LCMACLFG@?4txt?$AA@ 0044c934     Psyja2Engine.obj
 0002:0000193c       ??_C@_08CFLCMNCJ@maps?1map?$AA@ 0044c93c     Psyja2Engine.obj
 0002:0000194c       ??_7TileManager@@6B@       0044c94c     Psyja2TileManager.obj
 0002:00001960       ??_7Psyja2TileManager@@6B@ 0044c960     Psyja2TileManager.obj
 0002:00001974       ??_7RoundCompleteState@@6B@ 0044c974     RoundCompleteState.obj
 0002:0000199c       ??_C@_0L@ELAPEKKM@?5Complete?$CB?$AA@ 0044c99c     RoundCompleteState.obj
 0002:000019ac       ??_C@_06BPOKMNEB@Round?5?$AA@ 0044c9ac     RoundCompleteState.obj
 0002:000019b4       ??_C@_03KHICJKCI@?4?4?4?$AA@ 0044c9b4     RoundCompleteState.obj
 0002:000019b8       ??_C@_0BA@MKHJJFGN@Starting?5Round?5?$AA@ 0044c9b8     RoundCompleteState.obj
 0002:000019d0       ??_C@_1JE@FEGOHNIG@?$AAc?$AA?3?$AA?2?$AAu?$AAs?$AAe?$AAr?$AAs?$AA?2?$AAj?$AAo?$AAs?$AAh?$AA?2?$AAd?$AAr?$AAo?$AAp?$AAb?$AAo?$AAx?$AA?2?$AAc?$AAo?$AAm?$AAp?$AAu?$AAt?$AAe?$AAr?$AA?5?$AAs@ 0044c9d0     SimpleDemo.obj
 0002:00001a84       ??_C@_1BA@GEGIDABA@?$AAi?$AAX?$AA?5?$AA?$DO?$AA?$DN?$AA?5?$AA0?$AA?$AA@ 0044ca84     SimpleDemo.obj
 0002:00001a98       ??_C@_1CI@KAFMFBDA@?$AAi?$AAX?$AA?5?$AA?$DM?$AA?5?$AAm?$AA_?$AAi?$AAS?$AAc?$AAr?$AAe?$AAe?$AAn?$AAW?$AAi?$AAd?$AAt?$AAh?$AA?$AA@ 0044ca98     SimpleDemo.obj
 0002:00001ac8       ??_C@_1BA@PJGHNBGG@?$AAi?$AAY?$AA?5?$AA?$DO?$AA?$DN?$AA?5?$AA0?$AA?$AA@ 0044cac8     SimpleDemo.obj
 0002:00001adc       ??_C@_1CK@LKNFCKCC@?$AAi?$AAY?$AA?5?$AA?$DM?$AA?5?$AAm?$AA_?$AAi?$AAS?$AAc?$AAr?$AAe?$AAe?$AAn?$AAH?$AAe?$AAi?$AAg?$AAh?$AAt?$AA?$AA@ 0044cadc     SimpleDemo.obj
 0002:00001b10       ??_C@_1EI@BAHIIBCJ@?$AAi?$AAX?$AA?5?$AA?$DM?$AA?5?$AAG?$AAe?$AAt?$AAI?$AAn?$AAt?$AAs?$AAP?$AAe?$AAr?$AAS?$AAc?$AAr?$AAe?$AAe?$AAn?$AAR?$AAo?$AAw?$AA?$CI?$AA?5?$AAp?$AAT?$AAa?$AAr?$AAg?$AAe@ 0044cb10     SimpleDemo.obj
 0002:00001b6c       ??_7SimpleShape@@6B@       0044cb6c     SimpleDemo.obj
 0002:00001b84       ??_C@_0BB@HGEFLDGP@Position?5?$CFf?0?5?$CFf?6?$AA@ 0044cb84     SimpleDemo.obj
 0002:00001b98       ??_C@_0BE@IKIDCBN@Changing?5random?5?$CF6d?$AA@ 0044cb98     SimpleDemo.obj
 0002:00001bb0       ??_C@_0BH@GHJDDINE@Underneath?5the?5objects?$AA@ 0044cbb0     SimpleDemo.obj
 0002:00001bcc       ??_C@_08DMOOLEPO@Time?5?$CF6d?$AA@ 0044cbcc     SimpleDemo.obj
 0002:00001bd8       ??_C@_0BG@CCBEDEBD@On?5top?5of?5the?5objects?$AA@ 0044cbd8     SimpleDemo.obj
 0002:00001bf8       __real@3f747ae147ae147b    0044cbf8     SimpleDemo.obj
 0002:00001c08       __real@4004000000000000    0044cc08     SimpleDemo.obj
 0002:00001c14       ??_C@_04EEOGCCFB@?4png?$AA@ 0044cc14     SpriteManager.obj
 0002:00001c1c       ??_C@_05MNEEKFPK@coin?1?$AA@ 0044cc1c     SpriteManager.obj
 0002:00001c24       ??_C@_04GNPKBLNA@?4jpg?$AA@ 0044cc24     SpriteManager.obj
 0002:00001c2c       ??_C@_06EBNOPJDC@tiles?1?$AA@ 0044cc2c     SpriteManager.obj
 0002:00001c34       ??_C@_09OJFLNIJA@blood?4png?$AA@ 0044cc34     SpriteManager.obj
 0002:00001c40       ??_C@_09ECIPBDKF@heart?4png?$AA@ 0044cc40     SpriteManager.obj
 0002:00001c4c       ??_C@_08HFFFFOFA@help?4jpg?$AA@ 0044cc4c     SpriteManager.obj
 0002:00001c58       ??_C@_08PIJAJLIF@menu?4jpg?$AA@ 0044cc58     SpriteManager.obj
 0002:00001c68       ??_7State@@6B@             0044cc68     State.obj
 0002:00001c94       ??_7BouncingBall@@6B@      0044cc94     BouncingBall.obj
 0002:00001cb0       ??_7BouncingBall1@@6B@     0044ccb0     BouncingBall.obj
 0002:00001ccc       ??_7BouncingBall2@@6B@     0044cccc     BouncingBall.obj
 0002:00001ce4       ??_C@_08OOIKCPDP@demo?4png?$AA@ 0044cce4     BouncingBallMain.obj
 0002:00001cf0       ??_C@_01FHEEJDEE@A?$AA@    0044ccf0     BouncingBallMain.obj
 0002:00001cf4       ??_C@_01HMGJMAIH@B?$AA@    0044ccf4     BouncingBallMain.obj
 0002:00001cf8       ??_C@_01GFHCPBMG@C?$AA@    0044ccf8     BouncingBallMain.obj
 0002:00001cfc       ??_C@_0N@HPPCHOIG@Example?5text?$AA@ 0044ccfc     BouncingBallMain.obj
 0002:00001d10       __real@3fe999999999999a    0044cd10     BouncingBallMain.obj
 0002:00001d20       __real@3ff3333333333333    0044cd20     BouncingBallMain.obj
 0002:00001d30       __real@4062c00000000000    0044cd30     BouncingBallMain.obj
 0002:00001d40       __real@4066800000000000    0044cd40     BouncingBallMain.obj
 0002:00001d50       __real@4069000000000000    0044cd50     BouncingBallMain.obj
 0002:00001d60       __real@406f400000000000    0044cd60     BouncingBallMain.obj
 0002:00001d70       __real@4071300000000000    0044cd70     BouncingBallMain.obj
 0002:00001d80       __real@4072c00000000000    0044cd80     BouncingBallMain.obj
 0002:00001d90       __real@4074500000000000    0044cd90     BouncingBallMain.obj
 0002:00001da0       __real@4075e00000000000    0044cda0     BouncingBallMain.obj
 0002:00001db0       __real@4079000000000000    0044cdb0     BouncingBallMain.obj
 0002:00001dc0       __real@4079a00000000000    0044cdc0     BouncingBallMain.obj
 0002:00001dd0       __real@407c200000000000    0044cdd0     BouncingBallMain.obj
 0002:00001de0       __real@407f400000000000    0044cde0     BouncingBallMain.obj
 0002:00001df0       __real@4081300000000000    0044cdf0     BouncingBallMain.obj
 0002:00001e00       __real@4082c00000000000    0044ce00     BouncingBallMain.obj
 0002:00001e10       __real@4084500000000000    0044ce10     BouncingBallMain.obj
 0002:00001e20       __real@4087700000000000    0044ce20     BouncingBallMain.obj
 0002:00001e30       ??_7Demo1Main@@6B@         0044ce30     Demo1Main.obj
 0002:00001ea0       ??_7Demo2Main@@6B@         0044cea0     Demo2Main.obj
 0002:00001f10       ??_7Demo2Object@@6B@       0044cf10     Demo2Object.obj
 0002:00001f2c       ??_7Demo2TileManager@@6B@  0044cf2c     Demo2TileManager.obj
 0002:00001f44       ??_7Demo3Main@@6B@         0044cf44     Demo3Main.obj
 0002:00001fb0       ??_C@_0BA@IKMJDFDJ@bbbbbbbbbbbbbbb?$AA@ 0044cfb0     Demo3Main.obj
 0002:00001fc4       ??_C@_0BA@KIOJIFNA@baeaeadadaeaeab?$AA@ 0044cfc4     Demo3Main.obj
 0002:00001fd8       ??_C@_0BA@EEDPGBGG@babcbcbcbcbibeb?$AA@ 0044cfd8     Demo3Main.obj
 0002:00001fec       ??_C@_0BA@KPFPCIBG@badadgdadhdadhb?$AA@ 0044cfec     Demo3Main.obj
 0002:00002000       ??_C@_0BA@IIAFPCHL@bgbcbcbcbibcbeb?$AA@ 0044d000     Demo3Main.obj
 0002:00002014       ??_C@_0BA@NNKDJMAJ@badadadadadadab?$AA@ 0044d014     Demo3Main.obj
 0002:00002028       ??_C@_0BA@HHCBCOFJ@bfbcbibcbcbcbeb?$AA@ 0044d028     Demo3Main.obj
 0002:0000203c       ??_C@_0BA@FLPFLLHP@bahadadhdadadab?$AA@ 0044d03c     Demo3Main.obj
 0002:00002050       ??_C@_0BA@EKBAOEOC@bfbcbcbibcbibeb?$AA@ 0044d050     Demo3Main.obj
 0002:00002064       ??_C@_03JDANDILB@?$CFd?5?$AA@ 0044d064     Demo3Main.obj
 0002:00002068       ??_C@_01EEMJAFIK@?6?$AA@   0044d068     Demo3Main.obj
 0002:0000206c       ??_C@_0BH@KBIJLFFA@Tile?5placement?5example?$AA@ 0044d06c     Demo3Main.obj
 0002:0000208c       ??_7Demo3Object@@6B@       0044d08c     Demo3Object.obj
 0002:000020a8       ??_7Demo3ObjectFinished@@6B@ 0044d0a8     Demo3ObjectFinished.obj
 0002:000020c4       ??_7Demo3TileManager@@6B@  0044d0c4     Demo3TileManager.obj
 0002:000020d8       ??_7Demo4Main@@6B@         0044d0d8     Demo4Main.obj
 0002:00002144       ??_C@_0CC@DDHGPHEO@Initialised?5and?5waiting?5for?5SPAC@ 0044d144     Demo4Main.obj
 0002:0000216c       ??_C@_07JKJCPGE@Running?$AA@ 0044d16c     Demo4Main.obj
 0002:00002178       ??_C@_0CA@HICGBBB@Paused?4?5Press?5SPACE?5to?5continue?$AA@ 0044d178     Demo4Main.obj
 0002:000021a4       ??_7Demo4Object@@6B@       0044d1a4     Demo4Object.obj
 0002:000021c0       ??_7Demo4TileManager@@6B@  0044d1c0     Demo4TileManager.obj
 0002:000021d4       ??_7TileObject@@6B@        0044d1d4     TileObject.obj
 0002:000021f0       ??_7ZombieObject@@6B@      0044d1f0     ZombieObject.obj
 0002:00002220       __real@4004cccccccccccd    0044d220     ZombieObject.obj
 0002:00002230       __real@4022cccccccccccd    0044d230     ZombieObject.obj
 0002:00002240       __real@403e000000000000    0044d240     ZombieObject.obj
 0002:00002250       __real@bfe0000000000000    0044d250     ZombieObject.obj
 0002:00002260       __real@bff0000000000000    0044d260     ZombieObject.obj
 0002:00002270       __real@c039000000000000    0044d270     ZombieObject.obj
 0002:00002280       ??_7type_info@@6B@         0044d280     MSVCRT:ti_inst.obj
 0002:00002284       ?ProcessDetach@NativeDll@<CrtImplementationDetails>@@0IB 0044d284     MSVCRT:unhandld.obj
 0002:00002288       ?ProcessAttach@NativeDll@<CrtImplementationDetails>@@0IB 0044d288     MSVCRT:unhandld.obj
 0002:0000228c       ?ThreadAttach@NativeDll@<CrtImplementationDetails>@@0IB 0044d28c     MSVCRT:unhandld.obj
 0002:00002290       ?ThreadDetach@NativeDll@<CrtImplementationDetails>@@0IB 0044d290     MSVCRT:unhandld.obj
 0002:00002294       ?ProcessVerifier@NativeDll@<CrtImplementationDetails>@@0IB 0044d294     MSVCRT:unhandld.obj
 0002:000022a0       ??_C@_05EGJIMALK@UTF?98?$AA@ 0044d2a0     SDL2main:SDL_windows_main.obj
 0002:000022a8       ??_C@_0P@ICDEOIDM@UCS?92?9INTERNAL?$AA@ 0044d2a8     SDL2main:SDL_windows_main.obj
 0002:000022b8       ??_C@_0M@HFFOIJBL@Fatal?5Error?$AA@ 0044d2b8     SDL2main:SDL_windows_main.obj
 0002:000022c4       ??_C@_0BJ@HFNMHALN@Out?5of?5memory?5?9?5aborting?$AA@ 0044d2c4     SDL2main:SDL_windows_main.obj
 0002:000022e0       ??_C@_07KJFPOMFC@?$CFs?3?5?$CFs?6?$AA@ 0044d2e0     SDL2main:SDL_windows_main.obj
 0002:000022e8       __load_config_used         0044d2e8     MSVCRT:loadcfg.obj
 0002:0000273c       ??_R4BulletObject@@6B@     0044d73c     BulletObject.obj
 0002:00002754       ??_R3BulletObject@@8       0044d754     BulletObject.obj
 0002:00002768       ??_R2BulletObject@@8       0044d768     BulletObject.obj
 0002:00002774       ??_R1A@?0A@EA@BulletObject@@8 0044d774     BulletObject.obj
 0002:00002798       ??_R1A@?0A@EA@DisplayableObject@@8 0044d798     BulletObject.obj
 0002:000027bc       ??_R3DisplayableObject@@8  0044d7bc     BulletObject.obj
 0002:000027d0       ??_R2DisplayableObject@@8  0044d7d0     BulletObject.obj
 0002:000027d8       ??_R4error_category@std@@6B@ 0044d7d8     BulletObject.obj
 0002:000027f0       ??_R3error_category@std@@8 0044d7f0     BulletObject.obj
 0002:00002804       ??_R2error_category@std@@8 0044d804     BulletObject.obj
 0002:0000280c       ??_R1A@?0A@EA@error_category@std@@8 0044d80c     BulletObject.obj
 0002:00002830       ??_R4_Generic_error_category@std@@6B@ 0044d830     BulletObject.obj
 0002:00002848       ??_R3_Generic_error_category@std@@8 0044d848     BulletObject.obj
 0002:0000285c       ??_R2_Generic_error_category@std@@8 0044d85c     BulletObject.obj
 0002:00002868       ??_R1A@?0A@EA@_Generic_error_category@std@@8 0044d868     BulletObject.obj
 0002:0000288c       ??_R4_Iostream_error_category@std@@6B@ 0044d88c     BulletObject.obj
 0002:000028a4       ??_R3_Iostream_error_category@std@@8 0044d8a4     BulletObject.obj
 0002:000028b8       ??_R2_Iostream_error_category@std@@8 0044d8b8     BulletObject.obj
 0002:000028c8       ??_R1A@?0A@EA@_Iostream_error_category@std@@8 0044d8c8     BulletObject.obj
 0002:000028ec       ??_R4_System_error_category@std@@6B@ 0044d8ec     BulletObject.obj
 0002:00002904       ??_R3_System_error_category@std@@8 0044d904     BulletObject.obj
 0002:00002918       ??_R2_System_error_category@std@@8 0044d918     BulletObject.obj
 0002:00002928       ??_R1A@?0A@EA@_System_error_category@std@@8 0044d928     BulletObject.obj
 0002:0000294c       ??_R4Button@@6B@           0044d94c     Button.obj
 0002:00002964       ??_R3Button@@8             0044d964     Button.obj
 0002:00002978       ??_R2Button@@8             0044d978     Button.obj
 0002:00002984       ??_R1A@?0A@EA@Button@@8    0044d984     Button.obj
 0002:000029a8       ??_R4CoinObject@@6B@       0044d9a8     CoinObject.obj
 0002:000029c0       ??_R3CoinObject@@8         0044d9c0     CoinObject.obj
 0002:000029d4       ??_R2CoinObject@@8         0044d9d4     CoinObject.obj
 0002:000029e8       ??_R1A@?0A@EA@CoinObject@@8 0044d9e8     CoinObject.obj
 0002:00002a0c       ??_R1A@?0A@EA@CollectableObject@@8 0044da0c     CoinObject.obj
 0002:00002a30       ??_R3CollectableObject@@8  0044da30     CoinObject.obj
 0002:00002a44       ??_R2CollectableObject@@8  0044da44     CoinObject.obj
 0002:00002a54       ??_R1A@?0A@EA@TileObject@@8 0044da54     CoinObject.obj
 0002:00002a78       ??_R3TileObject@@8         0044da78     CoinObject.obj
 0002:00002a8c       ??_R2TileObject@@8         0044da8c     CoinObject.obj
 0002:00002a98       ??_R4CoinZombieObject@@6B@ 0044da98     CoinZombieObject.obj
 0002:00002ab0       ??_R3CoinZombieObject@@8   0044dab0     CoinZombieObject.obj
 0002:00002ac4       ??_R2CoinZombieObject@@8   0044dac4     CoinZombieObject.obj
 0002:00002ad8       ??_R1A@?0A@EA@CoinZombieObject@@8 0044dad8     CoinZombieObject.obj
 0002:00002afc       ??_R1A@?0A@EA@ZombieObject@@8 0044dafc     CoinZombieObject.obj
 0002:00002b20       ??_R3ZombieObject@@8       0044db20     CoinZombieObject.obj
 0002:00002b34       ??_R2ZombieObject@@8       0044db34     CoinZombieObject.obj
 0002:00002b44       ??_R4CollectableObject@@6B@ 0044db44     CollectableObject.obj
 0002:00002b5c       ??_R4DiedState@@6B@        0044db5c     DiedState.obj
 0002:00002b74       ??_R3DiedState@@8          0044db74     DiedState.obj
 0002:00002b88       ??_R2DiedState@@8          0044db88     DiedState.obj
 0002:00002b94       ??_R1A@?0A@EA@DiedState@@8 0044db94     DiedState.obj
 0002:00002bb8       ??_R1A@?0A@EA@State@@8     0044dbb8     DiedState.obj
 0002:00002bdc       ??_R3State@@8              0044dbdc     DiedState.obj
 0002:00002bf0       ??_R2State@@8              0044dbf0     DiedState.obj
 0002:00002bf8       ??_R4?$basic_stringbuf@DU?$char_traits@D@std@@V?$allocator@D@2@@std@@6B@ 0044dbf8     DiedState.obj
 0002:00002c10       ??_R3?$basic_stringbuf@DU?$char_traits@D@std@@V?$allocator@D@2@@std@@8 0044dc10     DiedState.obj
 0002:00002c24       ??_R2?$basic_stringbuf@DU?$char_traits@D@std@@V?$allocator@D@2@@std@@8 0044dc24     DiedState.obj
 0002:00002c30       ??_R1A@?0A@EA@?$basic_stringbuf@DU?$char_traits@D@std@@V?$allocator@D@2@@std@@8 0044dc30     DiedState.obj
 0002:00002c54       ??_R1A@?0A@EA@?$basic_streambuf@DU?$char_traits@D@std@@@std@@8 0044dc54     DiedState.obj
 0002:00002c78       ??_R3?$basic_streambuf@DU?$char_traits@D@std@@@std@@8 0044dc78     DiedState.obj
 0002:00002c8c       ??_R2?$basic_streambuf@DU?$char_traits@D@std@@@std@@8 0044dc8c     DiedState.obj
 0002:00002c94       ??_R4?$basic_ostringstream@DU?$char_traits@D@std@@V?$allocator@D@2@@std@@6B@ 0044dc94     DiedState.obj
 0002:00002cac       ??_R3?$basic_ostringstream@DU?$char_traits@D@std@@V?$allocator@D@2@@std@@8 0044dcac     DiedState.obj
 0002:00002cc0       ??_R2?$basic_ostringstream@DU?$char_traits@D@std@@V?$allocator@D@2@@std@@8 0044dcc0     DiedState.obj
 0002:00002cdc       ??_R1A@?0A@EA@?$basic_ostringstream@DU?$char_traits@D@std@@V?$allocator@D@2@@std@@8 0044dcdc     DiedState.obj
 0002:00002d00       ??_R1A@?0A@EA@?$basic_ostream@DU?$char_traits@D@std@@@std@@8 0044dd00     DiedState.obj
 0002:00002d24       ??_R3?$basic_ostream@DU?$char_traits@D@std@@@std@@8 0044dd24     DiedState.obj
 0002:00002d38       ??_R2?$basic_ostream@DU?$char_traits@D@std@@@std@@8 0044dd38     DiedState.obj
 0002:00002d4c       ??_R1A@A@3FA@?$basic_ios@DU?$char_traits@D@std@@@std@@8 0044dd4c     DiedState.obj
 0002:00002d70       ??_R3?$basic_ios@DU?$char_traits@D@std@@@std@@8 0044dd70     DiedState.obj
 0002:00002d84       ??_R2?$basic_ios@DU?$char_traits@D@std@@@std@@8 0044dd84     DiedState.obj
 0002:00002d94       ??_R1A@?0A@EA@?$basic_ios@DU?$char_traits@D@std@@@std@@8 0044dd94     DiedState.obj
 0002:00002db8       ??_R1A@?0A@EA@ios_base@std@@8 0044ddb8     DiedState.obj
 0002:00002ddc       ??_R3ios_base@std@@8       0044dddc     DiedState.obj
 0002:00002df0       ??_R2ios_base@std@@8       0044ddf0     DiedState.obj
 0002:00002dfc       ??_R17?0A@EA@?$_Iosb@H@std@@8 0044ddfc     DiedState.obj
 0002:00002e20       ??_R3?$_Iosb@H@std@@8      0044de20     DiedState.obj
 0002:00002e34       ??_R2?$_Iosb@H@std@@8      0044de34     DiedState.obj
 0002:00002e3c       ??_R1A@?0A@EA@?$_Iosb@H@std@@8 0044de3c     DiedState.obj
 0002:00002e60       ??_R1A@A@3EA@ios_base@std@@8 0044de60     DiedState.obj
 0002:00002e84       ??_R17A@3EA@?$_Iosb@H@std@@8 0044de84     DiedState.obj
 0002:00002ea8       ??_R4GameoverState@@6B@    0044dea8     GameoverState.obj
 0002:00002ec0       ??_R3GameoverState@@8      0044dec0     GameoverState.obj
 0002:00002ed4       ??_R2GameoverState@@8      0044ded4     GameoverState.obj
 0002:00002ee0       ??_R1A@?0A@EA@GameoverState@@8 0044dee0     GameoverState.obj
 0002:00002f04       ??_R4HealthBarObject@@6B@  0044df04     HealthBarObject.obj
 0002:00002f1c       ??_R3HealthBarObject@@8    0044df1c     HealthBarObject.obj
 0002:00002f30       ??_R2HealthBarObject@@8    0044df30     HealthBarObject.obj
 0002:00002f3c       ??_R1A@?0A@EA@HealthBarObject@@8 0044df3c     HealthBarObject.obj
 0002:00002f60       ??_R4HeartObject@@6B@      0044df60     HeartObject.obj
 0002:00002f78       ??_R3HeartObject@@8        0044df78     HeartObject.obj
 0002:00002f8c       ??_R2HeartObject@@8        0044df8c     HeartObject.obj
 0002:00002fa0       ??_R1A@?0A@EA@HeartObject@@8 0044dfa0     HeartObject.obj
 0002:00002fc4       ??_R4HeartZombieObject@@6B@ 0044dfc4     HeartZombieObject.obj
 0002:00002fdc       ??_R3HeartZombieObject@@8  0044dfdc     HeartZombieObject.obj
 0002:00002ff0       ??_R2HeartZombieObject@@8  0044dff0     HeartZombieObject.obj
 0002:00003004       ??_R1A@?0A@EA@HeartZombieObject@@8 0044e004     HeartZombieObject.obj
 0002:00003028       ??_R4HelpState@@6B@        0044e028     HelpState.obj
 0002:00003040       ??_R3HelpState@@8          0044e040     HelpState.obj
 0002:00003054       ??_R2HelpState@@8          0044e054     HelpState.obj
 0002:00003060       ??_R1A@?0A@EA@HelpState@@8 0044e060     HelpState.obj
 0002:00003084       ??_R4BaseEngine@@6B@       0044e084     BaseEngine.obj
 0002:0000309c       ??_R3BaseEngine@@8         0044e09c     BaseEngine.obj
 0002:000030b0       ??_R2BaseEngine@@8         0044e0b0     BaseEngine.obj
 0002:000030b8       ??_R1A@?0A@EA@BaseEngine@@8 0044e0b8     BaseEngine.obj
 0002:000030dc       ??_R4DisplayableObject@@6B@ 0044e0dc     DisplayableObject.obj
 0002:000030f4       ??_R1A@?0A@EA@exception@std@@8 0044e0f4     Map.obj
 0002:00003118       ??_R3exception@std@@8      0044e118     Map.obj
 0002:0000312c       ??_R2exception@std@@8      0044e12c     Map.obj
 0002:00003134       ??_R4?$basic_filebuf@DU?$char_traits@D@std@@@std@@6B@ 0044e134     Map.obj
 0002:0000314c       ??_R3?$basic_filebuf@DU?$char_traits@D@std@@@std@@8 0044e14c     Map.obj
 0002:00003160       ??_R2?$basic_filebuf@DU?$char_traits@D@std@@@std@@8 0044e160     Map.obj
 0002:0000316c       ??_R1A@?0A@EA@?$basic_filebuf@DU?$char_traits@D@std@@@std@@8 0044e16c     Map.obj
 0002:00003190       ??_R4?$basic_ifstream@DU?$char_traits@D@std@@@std@@6B@ 0044e190     Map.obj
 0002:000031a8       ??_R3?$basic_ifstream@DU?$char_traits@D@std@@@std@@8 0044e1a8     Map.obj
 0002:000031bc       ??_R2?$basic_ifstream@DU?$char_traits@D@std@@@std@@8 0044e1bc     Map.obj
 0002:000031d8       ??_R1A@?0A@EA@?$basic_ifstream@DU?$char_traits@D@std@@@std@@8 0044e1d8     Map.obj
 0002:000031fc       ??_R1A@?0A@EA@?$basic_istream@DU?$char_traits@D@std@@@std@@8 0044e1fc     Map.obj
 0002:00003220       ??_R3?$basic_istream@DU?$char_traits@D@std@@@std@@8 0044e220     Map.obj
 0002:00003234       ??_R2?$basic_istream@DU?$char_traits@D@std@@@std@@8 0044e234     Map.obj
 0002:00003248       ??_R4logic_error@std@@6B@  0044e248     Map.obj
 0002:00003260       ??_R3logic_error@std@@8    0044e260     Map.obj
 0002:00003274       ??_R2logic_error@std@@8    0044e274     Map.obj
 0002:00003280       ??_R1A@?0A@EA@logic_error@std@@8 0044e280     Map.obj
 0002:000032a4       ??_R4out_of_range@std@@6B@ 0044e2a4     Map.obj
 0002:000032bc       ??_R3out_of_range@std@@8   0044e2bc     Map.obj
 0002:000032d0       ??_R2out_of_range@std@@8   0044e2d0     Map.obj
 0002:000032e0       ??_R1A@?0A@EA@out_of_range@std@@8 0044e2e0     Map.obj
 0002:00003304       ??_R4MenuState@@6B@        0044e304     MenuState.obj
 0002:0000331c       ??_R3MenuState@@8          0044e31c     MenuState.obj
 0002:00003330       ??_R2MenuState@@8          0044e330     MenuState.obj
 0002:0000333c       ??_R1A@?0A@EA@MenuState@@8 0044e33c     MenuState.obj
 0002:00003360       ??_R4NormalZombieObject@@6B@ 0044e360     NormalZombieObject.obj
 0002:00003378       ??_R3NormalZombieObject@@8 0044e378     NormalZombieObject.obj
 0002:0000338c       ??_R2NormalZombieObject@@8 0044e38c     NormalZombieObject.obj
 0002:000033a0       ??_R1A@?0A@EA@NormalZombieObject@@8 0044e3a0     NormalZombieObject.obj
 0002:000033c4       ??_R4PauseState@@6B@       0044e3c4     PauseState.obj
 0002:000033dc       ??_R3PauseState@@8         0044e3dc     PauseState.obj
 0002:000033f0       ??_R2PauseState@@8         0044e3f0     PauseState.obj
 0002:000033fc       ??_R1A@?0A@EA@PauseState@@8 0044e3fc     PauseState.obj
 0002:00003420       ??_R4PlayerObject@@6B@     0044e420     PlayerObject.obj
 0002:00003438       ??_R3PlayerObject@@8       0044e438     PlayerObject.obj
 0002:0000344c       ??_R2PlayerObject@@8       0044e44c     PlayerObject.obj
 0002:0000345c       ??_R1A@?0A@EA@PlayerObject@@8 0044e45c     PlayerObject.obj
 0002:00003480       ??_R4PlayState@@6B@        0044e480     PlayState.obj
 0002:00003498       ??_R3PlayState@@8          0044e498     PlayState.obj
 0002:000034ac       ??_R2PlayState@@8          0044e4ac     PlayState.obj
 0002:000034b8       ??_R1A@?0A@EA@PlayState@@8 0044e4b8     PlayState.obj
 0002:000034dc       ??_R4Psyja2Engine@@6B@     0044e4dc     Psyja2Engine.obj
 0002:000034f4       ??_R3Psyja2Engine@@8       0044e4f4     Psyja2Engine.obj
 0002:00003508       ??_R2Psyja2Engine@@8       0044e508     Psyja2Engine.obj
 0002:00003514       ??_R1A@?0A@EA@Psyja2Engine@@8 0044e514     Psyja2Engine.obj
 0002:00003538       ??_R4TileManager@@6B@      0044e538     Psyja2TileManager.obj
 0002:00003550       ??_R3TileManager@@8        0044e550     Psyja2TileManager.obj
 0002:00003564       ??_R2TileManager@@8        0044e564     Psyja2TileManager.obj
 0002:0000356c       ??_R1A@?0A@EA@TileManager@@8 0044e56c     Psyja2TileManager.obj
 0002:00003590       ??_R4Psyja2TileManager@@6B@ 0044e590     Psyja2TileManager.obj
 0002:000035a8       ??_R3Psyja2TileManager@@8  0044e5a8     Psyja2TileManager.obj
 0002:000035bc       ??_R2Psyja2TileManager@@8  0044e5bc     Psyja2TileManager.obj
 0002:000035c8       ??_R1A@?0A@EA@Psyja2TileManager@@8 0044e5c8     Psyja2TileManager.obj
 0002:000035ec       ??_R4RoundCompleteState@@6B@ 0044e5ec     RoundCompleteState.obj
 0002:00003604       ??_R3RoundCompleteState@@8 0044e604     RoundCompleteState.obj
 0002:00003618       ??_R2RoundCompleteState@@8 0044e618     RoundCompleteState.obj
 0002:00003624       ??_R1A@?0A@EA@RoundCompleteState@@8 0044e624     RoundCompleteState.obj
 0002:00003648       ??_R4SimpleShape@@6B@      0044e648     SimpleDemo.obj
 0002:00003660       ??_R3SimpleShape@@8        0044e660     SimpleDemo.obj
 0002:00003674       ??_R2SimpleShape@@8        0044e674     SimpleDemo.obj
 0002:00003680       ??_R1A@?0A@EA@SimpleShape@@8 0044e680     SimpleDemo.obj
 0002:000036a4       ??_R4State@@6B@            0044e6a4     State.obj
 0002:000036bc       ??_R4BouncingBall@@6B@     0044e6bc     BouncingBall.obj
 0002:000036d4       ??_R3BouncingBall@@8       0044e6d4     BouncingBall.obj
 0002:000036e8       ??_R2BouncingBall@@8       0044e6e8     BouncingBall.obj
 0002:000036f4       ??_R1A@?0A@EA@BouncingBall@@8 0044e6f4     BouncingBall.obj
 0002:00003718       ??_R4BouncingBall1@@6B@    0044e718     BouncingBall.obj
 0002:00003730       ??_R3BouncingBall1@@8      0044e730     BouncingBall.obj
 0002:00003744       ??_R2BouncingBall1@@8      0044e744     BouncingBall.obj
 0002:00003754       ??_R1A@?0A@EA@BouncingBall1@@8 0044e754     BouncingBall.obj
 0002:00003778       ??_R4BouncingBall2@@6B@    0044e778     BouncingBall.obj
 0002:00003790       ??_R3BouncingBall2@@8      0044e790     BouncingBall.obj
 0002:000037a4       ??_R2BouncingBall2@@8      0044e7a4     BouncingBall.obj
 0002:000037b4       ??_R1A@?0A@EA@BouncingBall2@@8 0044e7b4     BouncingBall.obj
 0002:000037d8       ??_R4Demo1Main@@6B@        0044e7d8     Demo1Main.obj
 0002:000037f0       ??_R3Demo1Main@@8          0044e7f0     Demo1Main.obj
 0002:00003804       ??_R2Demo1Main@@8          0044e804     Demo1Main.obj
 0002:00003810       ??_R1A@?0A@EA@Demo1Main@@8 0044e810     Demo1Main.obj
 0002:00003834       ??_R4Demo2Main@@6B@        0044e834     Demo2Main.obj
 0002:0000384c       ??_R3Demo2Main@@8          0044e84c     Demo2Main.obj
 0002:00003860       ??_R2Demo2Main@@8          0044e860     Demo2Main.obj
 0002:0000386c       ??_R1A@?0A@EA@Demo2Main@@8 0044e86c     Demo2Main.obj
 0002:00003890       ??_R4Demo2Object@@6B@      0044e890     Demo2Object.obj
 0002:000038a8       ??_R3Demo2Object@@8        0044e8a8     Demo2Object.obj
 0002:000038bc       ??_R2Demo2Object@@8        0044e8bc     Demo2Object.obj
 0002:000038c8       ??_R1A@?0A@EA@Demo2Object@@8 0044e8c8     Demo2Object.obj
 0002:000038ec       ??_R4Demo2TileManager@@6B@ 0044e8ec     Demo2TileManager.obj
 0002:00003904       ??_R3Demo2TileManager@@8   0044e904     Demo2TileManager.obj
 0002:00003918       ??_R2Demo2TileManager@@8   0044e918     Demo2TileManager.obj
 0002:00003924       ??_R1A@?0A@EA@Demo2TileManager@@8 0044e924     Demo2TileManager.obj
 0002:00003948       ??_R4Demo3Main@@6B@        0044e948     Demo3Main.obj
 0002:00003960       ??_R3Demo3Main@@8          0044e960     Demo3Main.obj
 0002:00003974       ??_R2Demo3Main@@8          0044e974     Demo3Main.obj
 0002:00003980       ??_R1A@?0A@EA@Demo3Main@@8 0044e980     Demo3Main.obj
 0002:000039a4       ??_R4Demo3Object@@6B@      0044e9a4     Demo3Object.obj
 0002:000039bc       ??_R3Demo3Object@@8        0044e9bc     Demo3Object.obj
 0002:000039d0       ??_R2Demo3Object@@8        0044e9d0     Demo3Object.obj
 0002:000039dc       ??_R1A@?0A@EA@Demo3Object@@8 0044e9dc     Demo3Object.obj
 0002:00003a00       ??_R4Demo3ObjectFinished@@6B@ 0044ea00     Demo3ObjectFinished.obj
 0002:00003a18       ??_R3Demo3ObjectFinished@@8 0044ea18     Demo3ObjectFinished.obj
 0002:00003a2c       ??_R2Demo3ObjectFinished@@8 0044ea2c     Demo3ObjectFinished.obj
 0002:00003a38       ??_R1A@?0A@EA@Demo3ObjectFinished@@8 0044ea38     Demo3ObjectFinished.obj
 0002:00003a5c       ??_R4Demo3TileManager@@6B@ 0044ea5c     Demo3TileManager.obj
 0002:00003a74       ??_R3Demo3TileManager@@8   0044ea74     Demo3TileManager.obj
 0002:00003a88       ??_R2Demo3TileManager@@8   0044ea88     Demo3TileManager.obj
 0002:00003a94       ??_R1A@?0A@EA@Demo3TileManager@@8 0044ea94     Demo3TileManager.obj
 0002:00003ab8       ??_R4Demo4Main@@6B@        0044eab8     Demo4Main.obj
 0002:00003ad0       ??_R3Demo4Main@@8          0044ead0     Demo4Main.obj
 0002:00003ae4       ??_R2Demo4Main@@8          0044eae4     Demo4Main.obj
 0002:00003af0       ??_R1A@?0A@EA@Demo4Main@@8 0044eaf0     Demo4Main.obj
 0002:00003b14       ??_R4Demo4Object@@6B@      0044eb14     Demo4Object.obj
 0002:00003b2c       ??_R3Demo4Object@@8        0044eb2c     Demo4Object.obj
 0002:00003b40       ??_R2Demo4Object@@8        0044eb40     Demo4Object.obj
 0002:00003b4c       ??_R1A@?0A@EA@Demo4Object@@8 0044eb4c     Demo4Object.obj
 0002:00003b70       ??_R4Demo4TileManager@@6B@ 0044eb70     Demo4TileManager.obj
 0002:00003b88       ??_R3Demo4TileManager@@8   0044eb88     Demo4TileManager.obj
 0002:00003b9c       ??_R2Demo4TileManager@@8   0044eb9c     Demo4TileManager.obj
 0002:00003ba8       ??_R1A@?0A@EA@Demo4TileManager@@8 0044eba8     Demo4TileManager.obj
 0002:00003bcc       ??_R4TileObject@@6B@       0044ebcc     TileObject.obj
 0002:00003be4       ??_R4ZombieObject@@6B@     0044ebe4     ZombieObject.obj
 0002:00003bfc       ??_R4type_info@@6B@        0044ebfc     MSVCRT:ti_inst.obj
 0002:00003c10       ??_R3type_info@@8          0044ec10     MSVCRT:ti_inst.obj
 0002:00003c20       ??_R2type_info@@8          0044ec20     MSVCRT:ti_inst.obj
 0002:00003c28       ??_R1A@?0A@EA@type_info@@8 0044ec28     MSVCRT:ti_inst.obj
 0002:00003df0       ___safe_se_handler_table   0044edf0     <linker-defined>
 0002:00004194       ___rtc_iaa                 0044f194     MSVCRT:initsect.obj
 0002:00004298       ___rtc_izz                 0044f298     MSVCRT:initsect.obj
 0002:0000439c       ___rtc_taa                 0044f39c     MSVCRT:initsect.obj
 0002:000044a0       ___rtc_tzz                 0044f4a0     MSVCRT:initsect.obj
 0002:000059cc       __CT??_R0?AVexception@std@@@8??0exception@std@@QAE@ABV01@@Z12 004509cc     Map.obj
 0002:000059ec       __TI3?AVout_of_range@std@@ 004509ec     Map.obj
 0002:00005a00       __CTA3?AVout_of_range@std@@ 00450a00     Map.obj
 0002:00005a14       __CT??_R0?AVout_of_range@std@@@8??0out_of_range@std@@QAE@ABV01@@Z12 00450a14     Map.obj
 0002:00005a34       __CT??_R0?AVlogic_error@std@@@8??0logic_error@std@@QAE@ABV01@@Z12 00450a34     Map.obj
 0002:00005a54       __TI2?AVbad_cast@std@@     00450a54     Map.obj
 0002:00005a68       __CTA2?AVbad_cast@std@@    00450a68     Map.obj
 0002:00005a78       __CT??_R0?AVbad_cast@std@@@8??0bad_cast@std@@QAE@ABV01@@Z12 00450a78     Map.obj
 0003:00000000       ___security_cookie         00453000     MSVCRT:gs_cookie.obj
 0003:00000004       ___security_cookie_complement 00453004     MSVCRT:gs_cookie.obj
 0003:00000010       ___defaultmatherr          00453010     MSVCRT:merr.obj
 0003:00000020       ___globallocalestatus      00453020     MSVCRT:xthdloc.obj
 0003:00000024       ___native_dllmain_reason   00453024     MSVCRT:natstart.obj
 0003:00000028       ___isa_enabled             00453028     MSVCRT:cpu_disp.obj
 0003:00000138       ??_R0?AVBulletObject@@@8   00453138     BulletObject.obj
 0003:00000158       ??_R0?AVDisplayableObject@@@8 00453158     BulletObject.obj
 0003:00000180       ??_R0?AVerror_category@std@@@8 00453180     BulletObject.obj
 0003:000001a8       ??_R0?AV_Generic_error_category@std@@@8 004531a8     BulletObject.obj
 0003:000001dc       ??_R0?AV_Iostream_error_category@std@@@8 004531dc     BulletObject.obj
 0003:00000210       ??_R0?AV_System_error_category@std@@@8 00453210     BulletObject.obj
 0003:00000244       ??_R0?AVButton@@@8         00453244     Button.obj
 0003:00000260       ??_R0?AVCoinObject@@@8     00453260     CoinObject.obj
 0003:00000280       ??_R0?AVCollectableObject@@@8 00453280     CoinObject.obj
 0003:000002a8       ??_R0?AVTileObject@@@8     004532a8     CoinObject.obj
 0003:000002c8       ??_R0?AVCoinZombieObject@@@8 004532c8     CoinZombieObject.obj
 0003:000002f0       ??_R0?AVZombieObject@@@8   004532f0     CoinZombieObject.obj
 0003:00000310       ??_R0?AVDiedState@@@8      00453310     DiedState.obj
 0003:0000032c       ??_R0?AVState@@@8          0045332c     DiedState.obj
 0003:00000348       ??_R0?AV?$basic_stringbuf@DU?$char_traits@D@std@@V?$allocator@D@2@@std@@@8 00453348     DiedState.obj
 0003:000003a4       ??_R0?AV?$basic_streambuf@DU?$char_traits@D@std@@@std@@@8 004533a4     DiedState.obj
 0003:000003f0       ??_R0?AV?$basic_ostringstream@DU?$char_traits@D@std@@V?$allocator@D@2@@std@@@8 004533f0     DiedState.obj
 0003:00000454       ??_R0?AV?$basic_ostream@DU?$char_traits@D@std@@@std@@@8 00453454     DiedState.obj
 0003:0000049c       ??_R0?AV?$basic_ios@DU?$char_traits@D@std@@@std@@@8 0045349c     DiedState.obj
 0003:000004dc       ??_R0?AVios_base@std@@@8   004534dc     DiedState.obj
 0003:000004fc       ??_R0?AV?$_Iosb@H@std@@@8  004534fc     DiedState.obj
 0003:00000520       ??_R0?AVGameoverState@@@8  00453520     GameoverState.obj
 0003:00000544       ??_R0?AVHealthBarObject@@@8 00453544     HealthBarObject.obj
 0003:00000568       ??_R0?AVHeartObject@@@8    00453568     HeartObject.obj
 0003:00000588       ??_R0?AVHeartZombieObject@@@8 00453588     HeartZombieObject.obj
 0003:000005b0       ??_R0?AVHelpState@@@8      004535b0     HelpState.obj
 0003:000005cc       ??_R0?AVBaseEngine@@@8     004535cc     BaseEngine.obj
 0003:000005ec       ??_R0?AVexception@std@@@8  004535ec     Map.obj
 0003:00000610       ??_R0?AVout_of_range@std@@@8 00453610     Map.obj
 0003:00000638       ??_R0?AVlogic_error@std@@@8 00453638     Map.obj
 0003:0000065c       ??_R0?AVbad_cast@std@@@8   0045365c     Map.obj
 0003:0000067c       ??_R0?AV?$basic_filebuf@DU?$char_traits@D@std@@@std@@@8 0045367c     Map.obj
 0003:000006c4       ??_R0?AV?$basic_ifstream@DU?$char_traits@D@std@@@std@@@8 004536c4     Map.obj
 0003:0000070c       ??_R0?AV?$basic_istream@DU?$char_traits@D@std@@@std@@@8 0045370c     Map.obj
 0003:00000754       ??_R0?AVMenuState@@@8      00453754     MenuState.obj
 0003:00000770       ??_R0?AVNormalZombieObject@@@8 00453770     NormalZombieObject.obj
 0003:00000798       ??_R0?AVPauseState@@@8     00453798     PauseState.obj
 0003:000007b8       ??_R0?AVPlayerObject@@@8   004537b8     PlayerObject.obj
 0003:000007d8       ??_R0?AVPlayState@@@8      004537d8     PlayState.obj
 0003:000007f4       ??_R0?AVPsyja2Engine@@@8   004537f4     Psyja2Engine.obj
 0003:00000814       ??_R0?AVTileManager@@@8    00453814     Psyja2TileManager.obj
 0003:00000834       ??_R0?AVPsyja2TileManager@@@8 00453834     Psyja2TileManager.obj
 0003:0000085c       ??_R0?AVRoundCompleteState@@@8 0045385c     RoundCompleteState.obj
 0003:00000884       ??_R0?AVSimpleShape@@@8    00453884     SimpleDemo.obj
 0003:000008a4       ??_R0?AVBouncingBall@@@8   004538a4     BouncingBall.obj
 0003:000008c4       ??_R0?AVBouncingBall1@@@8  004538c4     BouncingBall.obj
 0003:000008e8       ??_R0?AVBouncingBall2@@@8  004538e8     BouncingBall.obj
 0003:0000090c       ??_R0?AVDemo1Main@@@8      0045390c     Demo1Main.obj
 0003:00000928       ??_R0?AVDemo2Main@@@8      00453928     Demo2Main.obj
 0003:00000944       ??_R0?AVDemo2Object@@@8    00453944     Demo2Object.obj
 0003:00000964       ??_R0?AVDemo2TileManager@@@8 00453964     Demo2TileManager.obj
 0003:0000098c       ??_R0?AVDemo3Main@@@8      0045398c     Demo3Main.obj
 0003:000009a8       ??_R0?AVDemo3Object@@@8    004539a8     Demo3Object.obj
 0003:000009c8       ??_R0?AVDemo3ObjectFinished@@@8 004539c8     Demo3ObjectFinished.obj
 0003:000009f0       ??_R0?AVDemo3TileManager@@@8 004539f0     Demo3TileManager.obj
 0003:00000a18       ??_R0?AVDemo4Main@@@8      00453a18     Demo4Main.obj
 0003:00000a34       ??_R0?AVDemo4Object@@@8    00453a34     Demo4Object.obj
 0003:00000a54       ??_R0?AVDemo4TileManager@@@8 00453a54     Demo4TileManager.obj
 0003:00000a7c       ??_R0?AVtype_info@@@8      00453a7c     MSVCRT:ti_inst.obj
 0003:00000bcc       ?_Generic_object@?$_Error_objects@H@std@@2V_Generic_error_category@2@A 00453bcc     BulletObject.obj
 0003:00000bd0       ?_Iostream_object@?$_Error_objects@H@std@@2V_Iostream_error_category@2@A 00453bd0     BulletObject.obj
 0003:00000bd4       ?_System_object@?$_Error_objects@H@std@@2V_System_error_category@2@A 00453bd4     BulletObject.obj
 0003:00000bd8       ?id@?$num_put@DV?$back_insert_iterator@V?$basic_string@DU?$char_traits@D@std@@V?$allocator@D@2@@std@@@std@@@std@@2V0locale@2@A 00453bd8     BulletObject.obj
 0003:00000bdc       ?id@?$num_put@_WV?$back_insert_iterator@V?$basic_string@_WU?$char_traits@_W@std@@V?$allocator@_W@2@@std@@@std@@@std@@2V0locale@2@A 00453bdc     BulletObject.obj
 0003:00000bfc       ?g_iGlobalRotation@ImageData@@1HA 00453bfc     JPGImage.obj
 0003:00000c00       ?g_iGlobalCropLeft@ImageData@@1HA 00453c00     JPGImage.obj
 0003:00000c04       ?g_iGlobalCropRight@ImageData@@1HA 00453c04     JPGImage.obj
 0003:00000c08       ?g_iGlobalCropTop@ImageData@@1HA 00453c08     JPGImage.obj
 0003:00000c0c       ?g_iGlobalCropBottom@ImageData@@1HA 00453c0c     JPGImage.obj
 0003:00000c18       ?_Stinit@?1??_Init@?$basic_filebuf@DU?$char_traits@D@std@@@std@@IAEXPAU_iobuf@@W4_Initfl@23@@Z@4HA 00453c18     Map.obj
 0003:00000c1c       ?_Psave@?$_Facetptr@V?$codecvt@DDH@std@@@std@@2PBVfacet@locale@2@B 00453c1c     Map.obj
 0003:00000c80       __commode                  00453c80     MSVCRT:xncommod.obj
 0003:00000c84       __dowildcard               00453c84     MSVCRT:wildcard.obj
 0003:00000c88       __newmode                  00453c88     MSVCRT:_newmode.obj
 0003:00000c8c       __fmode                    00453c8c     MSVCRT:xtxtmode.obj
 0003:00000fb0       ___isa_available           00453fb0     MSVCRT:cpu_disp.obj
 0003:00000fb4       ___favor                   00453fb4     MSVCRT:cpu_disp.obj
 0003:00000fb8       ___native_startup_lock     00453fb8     <common>
 0003:00000fc8       ___native_startup_state    00453fc8     <common>
 0003:00000fcc       ___onexitend               00453fcc     <common>
 0003:00000fdc       ___onexitbegin             00453fdc     <common>
 0003:00000fe0       ___dyn_tls_init_callback   00453fe0     <common>
 0004:00000000       __imp__IsDebuggerPresent@0 00454000     kernel32:KERNEL32.dll
 0004:00000004       __imp__GetSystemTimeAsFileTime@4 00454004     kernel32:KERNEL32.dll
 0004:00000008       __imp__GetCurrentThreadId@0 00454008     kernel32:KERNEL32.dll
 0004:0000000c       __imp__GetCurrentProcessId@0 0045400c     kernel32:KERNEL32.dll
 0004:00000010       __imp__QueryPerformanceCounter@4 00454010     kernel32:KERNEL32.dll
 0004:00000014       __imp__DecodePointer@4     00454014     kernel32:KERNEL32.dll
 0004:00000018       __imp__EncodePointer@4     00454018     kernel32:KERNEL32.dll
 0004:0000001c       __imp__GetCommandLineW@0   0045401c     kernel32:KERNEL32.dll
 0004:00000020       __imp__IsProcessorFeaturePresent@4 00454020     kernel32:KERNEL32.dll
 0004:00000024       \177KERNEL32_NULL_THUNK_DATA 00454024     kernel32:KERNEL32.dll
 0004:00000054       __imp_?id@?$codecvt@DDH@std@@2V0locale@2@A 00454054     msvcprt:MSVCP120.dll
 0004:00000058       __imp_?_Fiopen@std@@YAPAU_iobuf@@PBDHH@Z 00454058     msvcprt:MSVCP120.dll
 0004:0000005c       __imp_?_Ipfx@?$basic_istream@DU?$char_traits@D@std@@@std@@QAE_N_N@Z 0045405c     msvcprt:MSVCP120.dll
 0004:00000060       __imp_??0_Container_base12@std@@QAE@XZ 00454060     msvcprt:MSVCP120.dll
 0004:00000064       __imp_??0?$basic_istream@DU?$char_traits@D@std@@@std@@QAE@PAV?$basic_streambuf@DU?$char_traits@D@std@@@1@_N@Z 00454064     msvcprt:MSVCP120.dll
 0004:00000068       __imp_?widen@?$basic_ios@DU?$char_traits@D@std@@@std@@QBEDD@Z 00454068     msvcprt:MSVCP120.dll
 0004:0000006c       __imp_?_Init@?$basic_streambuf@DU?$char_traits@D@std@@@std@@IAEXPAPAD0PAH001@Z 0045406c     msvcprt:MSVCP120.dll
 0004:00000070       __imp_?_Init@?$basic_streambuf@DU?$char_traits@D@std@@@std@@IAEXXZ 00454070     msvcprt:MSVCP120.dll
 0004:00000074       __imp_?_Gninc@?$basic_streambuf@DU?$char_traits@D@std@@@std@@IAEPADXZ 00454074     msvcprt:MSVCP120.dll
 0004:00000078       __imp_?_Gndec@?$basic_streambuf@DU?$char_traits@D@std@@@std@@IAEPADXZ 00454078     msvcprt:MSVCP120.dll
 0004:0000007c       __imp_?snextc@?$basic_streambuf@DU?$char_traits@D@std@@@std@@QAEHXZ 0045407c     msvcprt:MSVCP120.dll
 0004:00000080       __imp_?sgetc@?$basic_streambuf@DU?$char_traits@D@std@@@std@@QAEHXZ 00454080     msvcprt:MSVCP120.dll
 0004:00000084       __imp_?sbumpc@?$basic_streambuf@DU?$char_traits@D@std@@@std@@QAEHXZ 00454084     msvcprt:MSVCP120.dll
 0004:00000088       __imp_?getloc@?$basic_streambuf@DU?$char_traits@D@std@@@std@@QBE?AVlocale@2@XZ 00454088     msvcprt:MSVCP120.dll
 0004:0000008c       __imp_?_Orphan_all@_Container_base12@std@@QAEXXZ 0045408c     msvcprt:MSVCP120.dll
 0004:00000090       __imp_??1?$basic_istream@DU?$char_traits@D@std@@@std@@UAE@XZ 00454090     msvcprt:MSVCP120.dll
 0004:00000094       __imp_?_Orphan_all@_Container_base0@std@@QAEXXZ 00454094     msvcprt:MSVCP120.dll
 0004:00000098       __imp_?_Xbad_alloc@std@@YAXXZ 00454098     msvcprt:MSVCP120.dll
 0004:0000009c       __imp_?_Xlength_error@std@@YAXPBD@Z 0045409c     msvcprt:MSVCP120.dll
 0004:000000a0       __imp_?_Xout_of_range@std@@YAXPBD@Z 004540a0     msvcprt:MSVCP120.dll
 0004:000000a4       __imp_??0id@locale@std@@QAE@I@Z 004540a4     msvcprt:MSVCP120.dll
 0004:000000a8       __imp_?_Syserror_map@std@@YAPBDH@Z 004540a8     msvcprt:MSVCP120.dll
 0004:000000ac       __imp_?_Winerror_map@std@@YAPBDH@Z 004540ac     msvcprt:MSVCP120.dll
 0004:000000b0       __imp_?_Swap_all@_Container_base0@std@@QAEXAAU12@@Z 004540b0     msvcprt:MSVCP120.dll
 0004:000000b4       __imp_?uncaught_exception@std@@YA_NXZ 004540b4     msvcprt:MSVCP120.dll
 0004:000000b8       __imp_?good@ios_base@std@@QBE_NXZ 004540b8     msvcprt:MSVCP120.dll
 0004:000000bc       __imp_?flags@ios_base@std@@QBEHXZ 004540bc     msvcprt:MSVCP120.dll
 0004:000000c0       __imp_?width@ios_base@std@@QBE_JXZ 004540c0     msvcprt:MSVCP120.dll
 0004:000000c4       __imp_?width@ios_base@std@@QAE_J_J@Z 004540c4     msvcprt:MSVCP120.dll
 0004:000000c8       __imp_??0?$basic_streambuf@DU?$char_traits@D@std@@@std@@IAE@XZ 004540c8     msvcprt:MSVCP120.dll
 0004:000000cc       __imp_??1?$basic_streambuf@DU?$char_traits@D@std@@@std@@UAE@XZ 004540cc     msvcprt:MSVCP120.dll
 0004:000000d0       __imp_?sputc@?$basic_streambuf@DU?$char_traits@D@std@@@std@@QAEHD@Z 004540d0     msvcprt:MSVCP120.dll
 0004:000000d4       __imp_?sputn@?$basic_streambuf@DU?$char_traits@D@std@@@std@@QAE_JPBD_J@Z 004540d4     msvcprt:MSVCP120.dll
 0004:000000d8       __imp_?eback@?$basic_streambuf@DU?$char_traits@D@std@@@std@@IBEPADXZ 004540d8     msvcprt:MSVCP120.dll
 0004:000000dc       __imp_?gptr@?$basic_streambuf@DU?$char_traits@D@std@@@std@@IBEPADXZ 004540dc     msvcprt:MSVCP120.dll
 0004:000000e0       __imp_?pbase@?$basic_streambuf@DU?$char_traits@D@std@@@std@@IBEPADXZ 004540e0     msvcprt:MSVCP120.dll
 0004:000000e4       __imp_?pptr@?$basic_streambuf@DU?$char_traits@D@std@@@std@@IBEPADXZ 004540e4     msvcprt:MSVCP120.dll
 0004:000000e8       __imp_?egptr@?$basic_streambuf@DU?$char_traits@D@std@@@std@@IBEPADXZ 004540e8     msvcprt:MSVCP120.dll
 0004:000000ec       __imp_?gbump@?$basic_streambuf@DU?$char_traits@D@std@@@std@@IAEXH@Z 004540ec     msvcprt:MSVCP120.dll
 0004:000000f0       __imp_?setg@?$basic_streambuf@DU?$char_traits@D@std@@@std@@IAEXPAD00@Z 004540f0     msvcprt:MSVCP120.dll
 0004:000000f4       __imp_?epptr@?$basic_streambuf@DU?$char_traits@D@std@@@std@@IBEPADXZ 004540f4     msvcprt:MSVCP120.dll
 0004:000000f8       __imp_?pbump@?$basic_streambuf@DU?$char_traits@D@std@@@std@@IAEXH@Z 004540f8     msvcprt:MSVCP120.dll
 0004:000000fc       __imp_?setp@?$basic_streambuf@DU?$char_traits@D@std@@@std@@IAEXPAD0@Z 004540fc     msvcprt:MSVCP120.dll
 0004:00000100       __imp_?setp@?$basic_streambuf@DU?$char_traits@D@std@@@std@@IAEXPAD00@Z 00454100     msvcprt:MSVCP120.dll
 0004:00000104       __imp_?_Pninc@?$basic_streambuf@DU?$char_traits@D@std@@@std@@IAEPADXZ 00454104     msvcprt:MSVCP120.dll
 0004:00000108       __imp_??1?$basic_ios@DU?$char_traits@D@std@@@std@@UAE@XZ 00454108     msvcprt:MSVCP120.dll
 0004:0000010c       __imp_?setstate@?$basic_ios@DU?$char_traits@D@std@@@std@@QAEXH_N@Z 0045410c     msvcprt:MSVCP120.dll
 0004:00000110       __imp_?tie@?$basic_ios@DU?$char_traits@D@std@@@std@@QBEPAV?$basic_ostream@DU?$char_traits@D@std@@@2@XZ 00454110     msvcprt:MSVCP120.dll
 0004:00000114       __imp_?rdbuf@?$basic_ios@DU?$char_traits@D@std@@@std@@QBEPAV?$basic_streambuf@DU?$char_traits@D@std@@@2@XZ 00454114     msvcprt:MSVCP120.dll
 0004:00000118       __imp_?fill@?$basic_ios@DU?$char_traits@D@std@@@std@@QBEDXZ 00454118     msvcprt:MSVCP120.dll
 0004:0000011c       __imp_??0?$basic_ios@DU?$char_traits@D@std@@@std@@IAE@XZ 0045411c     msvcprt:MSVCP120.dll
 0004:00000120       __imp_??0?$basic_ostream@DU?$char_traits@D@std@@@std@@QAE@PAV?$basic_streambuf@DU?$char_traits@D@std@@@1@_N@Z 00454120     msvcprt:MSVCP120.dll
 0004:00000124       __imp_??1?$basic_ostream@DU?$char_traits@D@std@@@std@@UAE@XZ 00454124     msvcprt:MSVCP120.dll
 0004:00000128       __imp_?_Osfx@?$basic_ostream@DU?$char_traits@D@std@@@std@@QAEXXZ 00454128     msvcprt:MSVCP120.dll
 0004:0000012c       __imp_?flush@?$basic_ostream@DU?$char_traits@D@std@@@std@@QAEAAV12@XZ 0045412c     msvcprt:MSVCP120.dll
 0004:00000130       __imp_?_Lock@?$basic_streambuf@DU?$char_traits@D@std@@@std@@UAEXXZ 00454130     msvcprt:MSVCP120.dll
 0004:00000134       __imp_?_Unlock@?$basic_streambuf@DU?$char_traits@D@std@@@std@@UAEXXZ 00454134     msvcprt:MSVCP120.dll
 0004:00000138       __imp_?imbue@?$basic_streambuf@DU?$char_traits@D@std@@@std@@MAEXABVlocale@2@@Z 00454138     msvcprt:MSVCP120.dll
 0004:0000013c       __imp_?setbuf@?$basic_streambuf@DU?$char_traits@D@std@@@std@@MAEPAV12@PAD_J@Z 0045413c     msvcprt:MSVCP120.dll
 0004:00000140       __imp_?showmanyc@?$basic_streambuf@DU?$char_traits@D@std@@@std@@MAE_JXZ 00454140     msvcprt:MSVCP120.dll
 0004:00000144       __imp_?sync@?$basic_streambuf@DU?$char_traits@D@std@@@std@@MAEHXZ 00454144     msvcprt:MSVCP120.dll
 0004:00000148       __imp_?uflow@?$basic_streambuf@DU?$char_traits@D@std@@@std@@MAEHXZ 00454148     msvcprt:MSVCP120.dll
 0004:0000014c       __imp_?xsgetn@?$basic_streambuf@DU?$char_traits@D@std@@@std@@MAE_JPAD_J@Z 0045414c     msvcprt:MSVCP120.dll
 0004:00000150       __imp_?xsputn@?$basic_streambuf@DU?$char_traits@D@std@@@std@@MAE_JPBD_J@Z 00454150     msvcprt:MSVCP120.dll
 0004:00000154       __imp_?_BADOFF@std@@3_JB   00454154     msvcprt:MSVCP120.dll
 0004:00000158       __imp_??0_Lockit@std@@QAE@H@Z 00454158     msvcprt:MSVCP120.dll
 0004:0000015c       __imp_??1_Lockit@std@@QAE@XZ 0045415c     msvcprt:MSVCP120.dll
 0004:00000160       __imp_??Bid@locale@std@@QAEIXZ 00454160     msvcprt:MSVCP120.dll
 0004:00000164       __imp_?_Getgloballocale@locale@std@@CAPAV_Locimp@12@XZ 00454164     msvcprt:MSVCP120.dll
 0004:00000168       __imp_?always_noconv@codecvt_base@std@@QBE_NXZ 00454168     msvcprt:MSVCP120.dll
 0004:0000016c       __imp_?in@?$codecvt@DDH@std@@QBEHAAHPBD1AAPBDPAD3AAPAD@Z 0045416c     msvcprt:MSVCP120.dll
 0004:00000170       __imp_?out@?$codecvt@DDH@std@@QBEHAAHPBD1AAPBDPAD3AAPAD@Z 00454170     msvcprt:MSVCP120.dll
 0004:00000174       __imp_?unshift@?$codecvt@DDH@std@@QBEHAAHPAD1AAPAD@Z 00454174     msvcprt:MSVCP120.dll
 0004:00000178       __imp_?_Getcat@?$codecvt@DDH@std@@SAIPAPBVfacet@locale@2@PBV42@@Z 00454178     msvcprt:MSVCP120.dll
 0004:0000017c       __imp_??Bios_base@std@@QBE_NXZ 0045417c     msvcprt:MSVCP120.dll
 0004:00000180       __imp_??1_Container_base12@std@@QAE@XZ 00454180     msvcprt:MSVCP120.dll
 0004:00000184       \177MSVCP120_NULL_THUNK_DATA 00454184     msvcprt:MSVCP120.dll
 0004:000001ec       __imp____crtTerminateProcess 004541ec     MSVCRT:MSVCR120.dll
 0004:000001f0       __imp____crtUnhandledException 004541f0     MSVCRT:MSVCR120.dll
 0004:000001f4       __imp___crt_debugger_hook  004541f4     MSVCRT:MSVCR120.dll
 0004:000001f8       __imp___except_handler4_common 004541f8     MSVCRT:MSVCR120.dll
 0004:000001fc       __imp___controlfp_s        004541fc     MSVCRT:MSVCR120.dll
 0004:00000200       __imp___invoke_watson      00454200     MSVCRT:MSVCR120.dll
 0004:00000204       __imp____crtSetUnhandledExceptionFilter 00454204     MSVCRT:MSVCR120.dll
 0004:00000208       __imp_?terminate@@YAXXZ    00454208     MSVCRT:MSVCR120.dll
 0004:0000020c       __imp_??1type_info@@UAE@XZ 0045420c     MSVCRT:MSVCR120.dll
 0004:00000210       __imp___onexit             00454210     MSVCRT:MSVCR120.dll
 0004:00000214       __imp____dllonexit         00454214     MSVCRT:MSVCR120.dll
 0004:00000218       __imp___calloc_crt         00454218     MSVCRT:MSVCR120.dll
 0004:0000021c       __imp___unlock             0045421c     MSVCRT:MSVCR120.dll
 0004:00000220       __imp___lock               00454220     MSVCRT:MSVCR120.dll
 0004:00000224       __imp___commode            00454224     MSVCRT:MSVCR120.dll
 0004:00000228       __imp___fmode              00454228     MSVCRT:MSVCR120.dll
 0004:0000022c       __imp___purecall           0045422c     MSVCRT:MSVCR120.dll
 0004:00000230       __imp_??2@YAPAXI@Z         00454230     MSVCRT:MSVCR120.dll
 0004:00000234       __imp_??3@YAXPAX@Z         00454234     MSVCRT:MSVCR120.dll
 0004:00000238       __imp__memcpy              00454238     MSVCRT:MSVCR120.dll
 0004:0000023c       __imp__strlen              0045423c     MSVCRT:MSVCR120.dll
 0004:00000240       __imp__memmove             00454240     MSVCRT:MSVCR120.dll
 0004:00000244       __imp__cos                 00454244     MSVCRT:MSVCR120.dll
 0004:00000248       __imp__round               00454248     MSVCRT:MSVCR120.dll
 0004:0000024c       __imp__sin                 0045424c     MSVCRT:MSVCR120.dll
 0004:00000250       __imp___hypot              00454250     MSVCRT:MSVCR120.dll
 0004:00000254       __imp___CxxThrowException@8 00454254     MSVCRT:MSVCR120.dll
 0004:00000258       __imp____CxxFrameHandler3  00454258     MSVCRT:MSVCR120.dll
 0004:0000025c       __imp____RTDynamicCast     0045425c     MSVCRT:MSVCR120.dll
 0004:00000260       __imp__sprintf_s           00454260     MSVCRT:MSVCR120.dll
 0004:00000264       __imp__memset              00454264     MSVCRT:MSVCR120.dll
 0004:00000268       __imp__atan2               00454268     MSVCRT:MSVCR120.dll
 0004:0000026c       __imp__fabs                0045426c     MSVCRT:MSVCR120.dll
 0004:00000270       __imp__sqrt                00454270     MSVCRT:MSVCR120.dll
 0004:00000274       __imp__sprintf             00454274     MSVCRT:MSVCR120.dll
 0004:00000278       __imp__srand               00454278     MSVCRT:MSVCR120.dll
 0004:0000027c       __imp___time64             0045427c     MSVCRT:MSVCR120.dll
 0004:00000280       __imp____iob_func          00454280     MSVCRT:MSVCR120.dll
 0004:00000284       __imp__fprintf             00454284     MSVCRT:MSVCR120.dll
 0004:00000288       __imp__printf              00454288     MSVCRT:MSVCR120.dll
 0004:0000028c       __imp__atan                0045428c     MSVCRT:MSVCR120.dll
 0004:00000290       __imp_??_V@YAXPAX@Z        00454290     MSVCRT:MSVCR120.dll
 0004:00000294       __imp__strcpy              00454294     MSVCRT:MSVCR120.dll
 0004:00000298       __imp__strcmp              00454298     MSVCRT:MSVCR120.dll
 0004:0000029c       __imp__fclose              0045429c     MSVCRT:MSVCR120.dll
 0004:000002a0       __imp__fflush              004542a0     MSVCRT:MSVCR120.dll
 0004:000002a4       __imp__fgetc               004542a4     MSVCRT:MSVCR120.dll
 0004:000002a8       __imp__fgetpos             004542a8     MSVCRT:MSVCR120.dll
 0004:000002ac       __imp__fputc               004542ac     MSVCRT:MSVCR120.dll
 0004:000002b0       __imp__fsetpos             004542b0     MSVCRT:MSVCR120.dll
 0004:000002b4       __imp___fseeki64           004542b4     MSVCRT:MSVCR120.dll
 0004:000002b8       __imp__fwrite              004542b8     MSVCRT:MSVCR120.dll
 0004:000002bc       __imp__setvbuf             004542bc     MSVCRT:MSVCR120.dll
 0004:000002c0       __imp__ungetc              004542c0     MSVCRT:MSVCR120.dll
 0004:000002c4       __imp___lock_file          004542c4     MSVCRT:MSVCR120.dll
 0004:000002c8       __imp___unlock_file        004542c8     MSVCRT:MSVCR120.dll
 0004:000002cc       __imp__memchr              004542cc     MSVCRT:MSVCR120.dll
 0004:000002d0       __imp__memcmp              004542d0     MSVCRT:MSVCR120.dll
 0004:000002d4       __imp__memcpy_s            004542d4     MSVCRT:MSVCR120.dll
 0004:000002d8       __imp__abs                 004542d8     MSVCRT:MSVCR120.dll
 0004:000002dc       __imp__atoi                004542dc     MSVCRT:MSVCR120.dll
 0004:000002e0       __imp__rand                004542e0     MSVCRT:MSVCR120.dll
 0004:000002e4       __imp_??0exception@std@@QAE@ABQBD@Z 004542e4     MSVCRT:MSVCR120.dll
 0004:000002e8       __imp_??0exception@std@@QAE@ABV01@@Z 004542e8     MSVCRT:MSVCR120.dll
 0004:000002ec       __imp_??1exception@std@@UAE@XZ 004542ec     MSVCRT:MSVCR120.dll
 0004:000002f0       __imp_??0bad_cast@std@@QAE@PBD@Z 004542f0     MSVCRT:MSVCR120.dll
 0004:000002f4       __imp_??0bad_cast@std@@QAE@ABV01@@Z 004542f4     MSVCRT:MSVCR120.dll
 0004:000002f8       __imp_??1bad_cast@std@@UAE@XZ 004542f8     MSVCRT:MSVCR120.dll
 0004:000002fc       __imp_?what@exception@std@@UBEPBDXZ 004542fc     MSVCRT:MSVCR120.dll
 0004:00000300       __imp___wassert            00454300     MSVCRT:MSVCR120.dll
 0004:00000304       __imp___XcptFilter         00454304     MSVCRT:MSVCR120.dll
 0004:00000308       __imp___amsg_exit          00454308     MSVCRT:MSVCR120.dll
 0004:0000030c       __imp____getmainargs       0045430c     MSVCRT:MSVCR120.dll
 0004:00000310       __imp____set_app_type      00454310     MSVCRT:MSVCR120.dll
 0004:00000314       __imp__exit                00454314     MSVCRT:MSVCR120.dll
 0004:00000318       __imp___exit               00454318     MSVCRT:MSVCR120.dll
 0004:0000031c       __imp___cexit              0045431c     MSVCRT:MSVCR120.dll
 0004:00000320       __imp___configthreadlocale 00454320     MSVCRT:MSVCR120.dll
 0004:00000324       __imp____setusermatherr    00454324     MSVCRT:MSVCR120.dll
 0004:00000328       __imp___initterm_e         00454328     MSVCRT:MSVCR120.dll
 0004:0000032c       __imp___initterm           0045432c     MSVCRT:MSVCR120.dll
 0004:00000330       __imp____initenv           00454330     MSVCRT:MSVCR120.dll
 0004:00000334       \177MSVCR120_NULL_THUNK_DATA 00454334     MSVCRT:MSVCR120.dll
 0004:000003a0       __imp__SDL_UpperBlit       004543a0     SDL2:SDL2.dll
 0004:000003a4       __imp__SDL_CreateWindow    004543a4     SDL2:SDL2.dll
 0004:000003a8       __imp__SDL_Delay           004543a8     SDL2:SDL2.dll
 0004:000003ac       __imp__SDL_PollEvent       004543ac     SDL2:SDL2.dll
 0004:000003b0       __imp__SDL_CreateRenderer  004543b0     SDL2:SDL2.dll
 0004:000003b4       __imp__SDL_CreateTexture   004543b4     SDL2:SDL2.dll
 0004:000003b8       __imp__SDL_UpdateTexture   004543b8     SDL2:SDL2.dll
 0004:000003bc       __imp__SDL_RenderCopy      004543bc     SDL2:SDL2.dll
 0004:000003c0       __imp__SDL_RenderPresent   004543c0     SDL2:SDL2.dll
 0004:000003c4       __imp__SDL_GetTicks        004543c4     SDL2:SDL2.dll
 0004:000003c8       __imp__SDL_Init            004543c8     SDL2:SDL2.dll
 0004:000003cc       __imp__SDL_Quit            004543cc     SDL2:SDL2.dll
 0004:000003d0       __imp__SDL_wcslen          004543d0     SDL2:SDL2.dll
 0004:000003d4       __imp__SDL_iconv_string    004543d4     SDL2:SDL2.dll
 0004:000003d8       __imp__SDL_malloc          004543d8     SDL2:SDL2.dll
 0004:000003dc       __imp__SDL_free            004543dc     SDL2:SDL2.dll
 0004:000003e0       __imp__SDL_FillRect        004543e0     SDL2:SDL2.dll
 0004:000003e4       __imp__SDL_UnlockSurface   004543e4     SDL2:SDL2.dll
 0004:000003e8       __imp__SDL_LockSurface     004543e8     SDL2:SDL2.dll
 0004:000003ec       __imp__SDL_FreeSurface     004543ec     SDL2:SDL2.dll
 0004:000003f0       __imp__SDL_CreateRGBSurface 004543f0     SDL2:SDL2.dll
 0004:000003f4       __imp__SDL_GetError        004543f4     SDL2:SDL2.dll
 0004:000003f8       __imp__SDL_SetMainReady    004543f8     SDL2:SDL2.dll
 0004:000003fc       __imp__SDL_isspace         004543fc     SDL2:SDL2.dll
 0004:00000400       \177SDL2_NULL_THUNK_DATA   00454400     SDL2:SDL2.dll
 0004:0000043c       __imp__IMG_Load            0045443c     SDL2_image:SDL2_image.dll
 0004:00000440       \177SDL2_image_NULL_THUNK_DATA 00454440     SDL2_image:SDL2_image.dll
 0004:0000046c       __imp__TTF_RenderText_Solid 0045446c     SDL2_ttf:SDL2_ttf.dll
 0004:00000470       __imp__TTF_Init            00454470     SDL2_ttf:SDL2_ttf.dll
 0004:00000474       __imp__TTF_Quit            00454474     SDL2_ttf:SDL2_ttf.dll
 0004:00000478       __imp__TTF_OpenFont        00454478     SDL2_ttf:SDL2_ttf.dll
 0004:0000047c       __imp__TTF_CloseFont       0045447c     SDL2_ttf:SDL2_ttf.dll
 0004:00000480       \177SDL2_ttf_NULL_THUNK_DATA 00454480     SDL2_ttf:SDL2_ttf.dll
 0004:000004b0       __IMPORT_DESCRIPTOR_SDL2   004544b0     SDL2:SDL2.dll
 0004:000004c4       __IMPORT_DESCRIPTOR_SDL2_image 004544c4     SDL2_image:SDL2_image.dll
 0004:000004d8       __IMPORT_DESCRIPTOR_SDL2_ttf 004544d8     SDL2_ttf:SDL2_ttf.dll
 0004:000004ec       __IMPORT_DESCRIPTOR_MSVCP120 004544ec     msvcprt:MSVCP120.dll
 0004:00000500       __IMPORT_DESCRIPTOR_MSVCR120 00454500     MSVCRT:MSVCR120.dll
 0004:00000514       __IMPORT_DESCRIPTOR_KERNEL32 00454514     kernel32:KERNEL32.dll
 0004:00000528       __NULL_IMPORT_DESCRIPTOR   00454528     SDL2:SDL2.dll

 entry point at        0001:00041a30

